
build/pix_tester:     file format elf64-x86-64


Disassembly of section .init:

0000000000002000 <_init>:
    2000:	f3 0f 1e fa          	endbr64 
    2004:	48 83 ec 08          	sub    $0x8,%rsp
    2008:	48 8b 05 d9 6f 00 00 	mov    0x6fd9(%rip),%rax        # 8fe8 <__gmon_start__@Base>
    200f:	48 85 c0             	test   %rax,%rax
    2012:	74 02                	je     2016 <_init+0x16>
    2014:	ff d0                	call   *%rax
    2016:	48 83 c4 08          	add    $0x8,%rsp
    201a:	c3                   	ret    

Disassembly of section .plt:

0000000000002020 <.plt>:
    2020:	ff 35 d2 6e 00 00    	push   0x6ed2(%rip)        # 8ef8 <_GLOBAL_OFFSET_TABLE_+0x8>
    2026:	f2 ff 25 d3 6e 00 00 	bnd jmp *0x6ed3(%rip)        # 8f00 <_GLOBAL_OFFSET_TABLE_+0x10>
    202d:	0f 1f 00             	nopl   (%rax)
    2030:	f3 0f 1e fa          	endbr64 
    2034:	68 00 00 00 00       	push   $0x0
    2039:	f2 e9 e1 ff ff ff    	bnd jmp 2020 <_init+0x20>
    203f:	90                   	nop
    2040:	f3 0f 1e fa          	endbr64 
    2044:	68 01 00 00 00       	push   $0x1
    2049:	f2 e9 d1 ff ff ff    	bnd jmp 2020 <_init+0x20>
    204f:	90                   	nop
    2050:	f3 0f 1e fa          	endbr64 
    2054:	68 02 00 00 00       	push   $0x2
    2059:	f2 e9 c1 ff ff ff    	bnd jmp 2020 <_init+0x20>
    205f:	90                   	nop
    2060:	f3 0f 1e fa          	endbr64 
    2064:	68 03 00 00 00       	push   $0x3
    2069:	f2 e9 b1 ff ff ff    	bnd jmp 2020 <_init+0x20>
    206f:	90                   	nop
    2070:	f3 0f 1e fa          	endbr64 
    2074:	68 04 00 00 00       	push   $0x4
    2079:	f2 e9 a1 ff ff ff    	bnd jmp 2020 <_init+0x20>
    207f:	90                   	nop
    2080:	f3 0f 1e fa          	endbr64 
    2084:	68 05 00 00 00       	push   $0x5
    2089:	f2 e9 91 ff ff ff    	bnd jmp 2020 <_init+0x20>
    208f:	90                   	nop
    2090:	f3 0f 1e fa          	endbr64 
    2094:	68 06 00 00 00       	push   $0x6
    2099:	f2 e9 81 ff ff ff    	bnd jmp 2020 <_init+0x20>
    209f:	90                   	nop
    20a0:	f3 0f 1e fa          	endbr64 
    20a4:	68 07 00 00 00       	push   $0x7
    20a9:	f2 e9 71 ff ff ff    	bnd jmp 2020 <_init+0x20>
    20af:	90                   	nop
    20b0:	f3 0f 1e fa          	endbr64 
    20b4:	68 08 00 00 00       	push   $0x8
    20b9:	f2 e9 61 ff ff ff    	bnd jmp 2020 <_init+0x20>
    20bf:	90                   	nop
    20c0:	f3 0f 1e fa          	endbr64 
    20c4:	68 09 00 00 00       	push   $0x9
    20c9:	f2 e9 51 ff ff ff    	bnd jmp 2020 <_init+0x20>
    20cf:	90                   	nop
    20d0:	f3 0f 1e fa          	endbr64 
    20d4:	68 0a 00 00 00       	push   $0xa
    20d9:	f2 e9 41 ff ff ff    	bnd jmp 2020 <_init+0x20>
    20df:	90                   	nop
    20e0:	f3 0f 1e fa          	endbr64 
    20e4:	68 0b 00 00 00       	push   $0xb
    20e9:	f2 e9 31 ff ff ff    	bnd jmp 2020 <_init+0x20>
    20ef:	90                   	nop
    20f0:	f3 0f 1e fa          	endbr64 
    20f4:	68 0c 00 00 00       	push   $0xc
    20f9:	f2 e9 21 ff ff ff    	bnd jmp 2020 <_init+0x20>
    20ff:	90                   	nop
    2100:	f3 0f 1e fa          	endbr64 
    2104:	68 0d 00 00 00       	push   $0xd
    2109:	f2 e9 11 ff ff ff    	bnd jmp 2020 <_init+0x20>
    210f:	90                   	nop
    2110:	f3 0f 1e fa          	endbr64 
    2114:	68 0e 00 00 00       	push   $0xe
    2119:	f2 e9 01 ff ff ff    	bnd jmp 2020 <_init+0x20>
    211f:	90                   	nop
    2120:	f3 0f 1e fa          	endbr64 
    2124:	68 0f 00 00 00       	push   $0xf
    2129:	f2 e9 f1 fe ff ff    	bnd jmp 2020 <_init+0x20>
    212f:	90                   	nop
    2130:	f3 0f 1e fa          	endbr64 
    2134:	68 10 00 00 00       	push   $0x10
    2139:	f2 e9 e1 fe ff ff    	bnd jmp 2020 <_init+0x20>
    213f:	90                   	nop
    2140:	f3 0f 1e fa          	endbr64 
    2144:	68 11 00 00 00       	push   $0x11
    2149:	f2 e9 d1 fe ff ff    	bnd jmp 2020 <_init+0x20>
    214f:	90                   	nop
    2150:	f3 0f 1e fa          	endbr64 
    2154:	68 12 00 00 00       	push   $0x12
    2159:	f2 e9 c1 fe ff ff    	bnd jmp 2020 <_init+0x20>
    215f:	90                   	nop
    2160:	f3 0f 1e fa          	endbr64 
    2164:	68 13 00 00 00       	push   $0x13
    2169:	f2 e9 b1 fe ff ff    	bnd jmp 2020 <_init+0x20>
    216f:	90                   	nop
    2170:	f3 0f 1e fa          	endbr64 
    2174:	68 14 00 00 00       	push   $0x14
    2179:	f2 e9 a1 fe ff ff    	bnd jmp 2020 <_init+0x20>
    217f:	90                   	nop
    2180:	f3 0f 1e fa          	endbr64 
    2184:	68 15 00 00 00       	push   $0x15
    2189:	f2 e9 91 fe ff ff    	bnd jmp 2020 <_init+0x20>
    218f:	90                   	nop
    2190:	f3 0f 1e fa          	endbr64 
    2194:	68 16 00 00 00       	push   $0x16
    2199:	f2 e9 81 fe ff ff    	bnd jmp 2020 <_init+0x20>
    219f:	90                   	nop
    21a0:	f3 0f 1e fa          	endbr64 
    21a4:	68 17 00 00 00       	push   $0x17
    21a9:	f2 e9 71 fe ff ff    	bnd jmp 2020 <_init+0x20>
    21af:	90                   	nop
    21b0:	f3 0f 1e fa          	endbr64 
    21b4:	68 18 00 00 00       	push   $0x18
    21b9:	f2 e9 61 fe ff ff    	bnd jmp 2020 <_init+0x20>
    21bf:	90                   	nop

Disassembly of section .plt.got:

00000000000021c0 <__cxa_finalize@plt>:
    21c0:	f3 0f 1e fa          	endbr64 
    21c4:	f2 ff 25 05 6e 00 00 	bnd jmp *0x6e05(%rip)        # 8fd0 <__cxa_finalize@GLIBC_2.2.5>
    21cb:	0f 1f 44 00 00       	nopl   0x0(%rax,%rax,1)

Disassembly of section .plt.sec:

00000000000021d0 <_ZNSt14basic_ofstreamIcSt11char_traitsIcEE4openEPKcSt13_Ios_Openmode@plt>:
    21d0:	f3 0f 1e fa          	endbr64 
    21d4:	f2 ff 25 2d 6d 00 00 	bnd jmp *0x6d2d(%rip)        # 8f08 <_ZNSt14basic_ofstreamIcSt11char_traitsIcEE4openEPKcSt13_Ios_Openmode@GLIBCXX_3.4>
    21db:	0f 1f 44 00 00       	nopl   0x0(%rax,%rax,1)

00000000000021e0 <_ZNSt14basic_ifstreamIcSt11char_traitsIcEE5closeEv@plt>:
    21e0:	f3 0f 1e fa          	endbr64 
    21e4:	f2 ff 25 25 6d 00 00 	bnd jmp *0x6d25(%rip)        # 8f10 <_ZNSt14basic_ifstreamIcSt11char_traitsIcEE5closeEv@GLIBCXX_3.4>
    21eb:	0f 1f 44 00 00       	nopl   0x0(%rax,%rax,1)

00000000000021f0 <_ZNSolsEm@plt>:
    21f0:	f3 0f 1e fa          	endbr64 
    21f4:	f2 ff 25 1d 6d 00 00 	bnd jmp *0x6d1d(%rip)        # 8f18 <_ZNSolsEm@GLIBCXX_3.4>
    21fb:	0f 1f 44 00 00       	nopl   0x0(%rax,%rax,1)

0000000000002200 <_ZNSt14basic_ifstreamIcSt11char_traitsIcEED1Ev@plt>:
    2200:	f3 0f 1e fa          	endbr64 
    2204:	f2 ff 25 15 6d 00 00 	bnd jmp *0x6d15(%rip)        # 8f20 <_ZNSt14basic_ifstreamIcSt11char_traitsIcEED1Ev@GLIBCXX_3.4>
    220b:	0f 1f 44 00 00       	nopl   0x0(%rax,%rax,1)

0000000000002210 <_ZNSolsEPFRSt8ios_baseS0_E@plt>:
    2210:	f3 0f 1e fa          	endbr64 
    2214:	f2 ff 25 0d 6d 00 00 	bnd jmp *0x6d0d(%rip)        # 8f28 <_ZNSolsEPFRSt8ios_baseS0_E@GLIBCXX_3.4>
    221b:	0f 1f 44 00 00       	nopl   0x0(%rax,%rax,1)

0000000000002220 <_ZNSi4peekEv@plt>:
    2220:	f3 0f 1e fa          	endbr64 
    2224:	f2 ff 25 05 6d 00 00 	bnd jmp *0x6d05(%rip)        # 8f30 <_ZNSi4peekEv@GLIBCXX_3.4>
    222b:	0f 1f 44 00 00       	nopl   0x0(%rax,%rax,1)

0000000000002230 <__cxa_allocate_exception@plt>:
    2230:	f3 0f 1e fa          	endbr64 
    2234:	f2 ff 25 fd 6c 00 00 	bnd jmp *0x6cfd(%rip)        # 8f38 <__cxa_allocate_exception@CXXABI_1.3>
    223b:	0f 1f 44 00 00       	nopl   0x0(%rax,%rax,1)

0000000000002240 <system@plt>:
    2240:	f3 0f 1e fa          	endbr64 
    2244:	f2 ff 25 f5 6c 00 00 	bnd jmp *0x6cf5(%rip)        # 8f40 <system@GLIBC_2.2.5>
    224b:	0f 1f 44 00 00       	nopl   0x0(%rax,%rax,1)

0000000000002250 <__cxa_atexit@plt>:
    2250:	f3 0f 1e fa          	endbr64 
    2254:	f2 ff 25 ed 6c 00 00 	bnd jmp *0x6ced(%rip)        # 8f48 <__cxa_atexit@GLIBC_2.2.5>
    225b:	0f 1f 44 00 00       	nopl   0x0(%rax,%rax,1)

0000000000002260 <_ZStlsISt11char_traitsIcEERSt13basic_ostreamIcT_ES5_PKc@plt>:
    2260:	f3 0f 1e fa          	endbr64 
    2264:	f2 ff 25 e5 6c 00 00 	bnd jmp *0x6ce5(%rip)        # 8f50 <_ZStlsISt11char_traitsIcEERSt13basic_ostreamIcT_ES5_PKc@GLIBCXX_3.4>
    226b:	0f 1f 44 00 00       	nopl   0x0(%rax,%rax,1)

0000000000002270 <__stack_chk_fail@plt>:
    2270:	f3 0f 1e fa          	endbr64 
    2274:	f2 ff 25 dd 6c 00 00 	bnd jmp *0x6cdd(%rip)        # 8f58 <__stack_chk_fail@GLIBC_2.4>
    227b:	0f 1f 44 00 00       	nopl   0x0(%rax,%rax,1)

0000000000002280 <_ZNSolsEe@plt>:
    2280:	f3 0f 1e fa          	endbr64 
    2284:	f2 ff 25 d5 6c 00 00 	bnd jmp *0x6cd5(%rip)        # 8f60 <_ZNSolsEe@GLIBCXX_3.4>
    228b:	0f 1f 44 00 00       	nopl   0x0(%rax,%rax,1)

0000000000002290 <_ZStlsISt11char_traitsIcEERSt13basic_ostreamIcT_ES5_c@plt>:
    2290:	f3 0f 1e fa          	endbr64 
    2294:	f2 ff 25 cd 6c 00 00 	bnd jmp *0x6ccd(%rip)        # 8f68 <_ZStlsISt11char_traitsIcEERSt13basic_ostreamIcT_ES5_c@GLIBCXX_3.4>
    229b:	0f 1f 44 00 00       	nopl   0x0(%rax,%rax,1)

00000000000022a0 <_ZNSi3getEv@plt>:
    22a0:	f3 0f 1e fa          	endbr64 
    22a4:	f2 ff 25 c5 6c 00 00 	bnd jmp *0x6cc5(%rip)        # 8f70 <_ZNSi3getEv@GLIBCXX_3.4>
    22ab:	0f 1f 44 00 00       	nopl   0x0(%rax,%rax,1)

00000000000022b0 <_ZNSt14basic_ofstreamIcSt11char_traitsIcEE5closeEv@plt>:
    22b0:	f3 0f 1e fa          	endbr64 
    22b4:	f2 ff 25 bd 6c 00 00 	bnd jmp *0x6cbd(%rip)        # 8f78 <_ZNSt14basic_ofstreamIcSt11char_traitsIcEE5closeEv@GLIBCXX_3.4>
    22bb:	0f 1f 44 00 00       	nopl   0x0(%rax,%rax,1)

00000000000022c0 <_ZNSt14basic_ofstreamIcSt11char_traitsIcEED1Ev@plt>:
    22c0:	f3 0f 1e fa          	endbr64 
    22c4:	f2 ff 25 b5 6c 00 00 	bnd jmp *0x6cb5(%rip)        # 8f80 <_ZNSt14basic_ofstreamIcSt11char_traitsIcEED1Ev@GLIBCXX_3.4>
    22cb:	0f 1f 44 00 00       	nopl   0x0(%rax,%rax,1)

00000000000022d0 <_ZNSt8ios_base4InitC1Ev@plt>:
    22d0:	f3 0f 1e fa          	endbr64 
    22d4:	f2 ff 25 ad 6c 00 00 	bnd jmp *0x6cad(%rip)        # 8f88 <_ZNSt8ios_base4InitC1Ev@GLIBCXX_3.4>
    22db:	0f 1f 44 00 00       	nopl   0x0(%rax,%rax,1)

00000000000022e0 <_ZNSt14basic_ifstreamIcSt11char_traitsIcEE7is_openEv@plt>:
    22e0:	f3 0f 1e fa          	endbr64 
    22e4:	f2 ff 25 a5 6c 00 00 	bnd jmp *0x6ca5(%rip)        # 8f90 <_ZNSt14basic_ifstreamIcSt11char_traitsIcEE7is_openEv@GLIBCXX_3.4>
    22eb:	0f 1f 44 00 00       	nopl   0x0(%rax,%rax,1)

00000000000022f0 <_ZNKSt9basic_iosIcSt11char_traitsIcEE4goodEv@plt>:
    22f0:	f3 0f 1e fa          	endbr64 
    22f4:	f2 ff 25 9d 6c 00 00 	bnd jmp *0x6c9d(%rip)        # 8f98 <_ZNKSt9basic_iosIcSt11char_traitsIcEE4goodEv@GLIBCXX_3.4>
    22fb:	0f 1f 44 00 00       	nopl   0x0(%rax,%rax,1)

0000000000002300 <_ZNSt14basic_ofstreamIcSt11char_traitsIcEEC1Ev@plt>:
    2300:	f3 0f 1e fa          	endbr64 
    2304:	f2 ff 25 95 6c 00 00 	bnd jmp *0x6c95(%rip)        # 8fa0 <_ZNSt14basic_ofstreamIcSt11char_traitsIcEEC1Ev@GLIBCXX_3.4>
    230b:	0f 1f 44 00 00       	nopl   0x0(%rax,%rax,1)

0000000000002310 <__cxa_throw@plt>:
    2310:	f3 0f 1e fa          	endbr64 
    2314:	f2 ff 25 8d 6c 00 00 	bnd jmp *0x6c8d(%rip)        # 8fa8 <__cxa_throw@CXXABI_1.3>
    231b:	0f 1f 44 00 00       	nopl   0x0(%rax,%rax,1)

0000000000002320 <_ZNSolsEi@plt>:
    2320:	f3 0f 1e fa          	endbr64 
    2324:	f2 ff 25 85 6c 00 00 	bnd jmp *0x6c85(%rip)        # 8fb0 <_ZNSolsEi@GLIBCXX_3.4>
    232b:	0f 1f 44 00 00       	nopl   0x0(%rax,%rax,1)

0000000000002330 <_Unwind_Resume@plt>:
    2330:	f3 0f 1e fa          	endbr64 
    2334:	f2 ff 25 7d 6c 00 00 	bnd jmp *0x6c7d(%rip)        # 8fb8 <_Unwind_Resume@GCC_3.0>
    233b:	0f 1f 44 00 00       	nopl   0x0(%rax,%rax,1)

0000000000002340 <_ZNSt14basic_ifstreamIcSt11char_traitsIcEEC1EPKcSt13_Ios_Openmode@plt>:
    2340:	f3 0f 1e fa          	endbr64 
    2344:	f2 ff 25 75 6c 00 00 	bnd jmp *0x6c75(%rip)        # 8fc0 <_ZNSt14basic_ifstreamIcSt11char_traitsIcEEC1EPKcSt13_Ios_Openmode@GLIBCXX_3.4>
    234b:	0f 1f 44 00 00       	nopl   0x0(%rax,%rax,1)

0000000000002350 <_ZNKSt9basic_iosIcSt11char_traitsIcEE3eofEv@plt>:
    2350:	f3 0f 1e fa          	endbr64 
    2354:	f2 ff 25 6d 6c 00 00 	bnd jmp *0x6c6d(%rip)        # 8fc8 <_ZNKSt9basic_iosIcSt11char_traitsIcEE3eofEv@GLIBCXX_3.4>
    235b:	0f 1f 44 00 00       	nopl   0x0(%rax,%rax,1)

Disassembly of section .text:

0000000000002360 <_start>:
    2360:	f3 0f 1e fa          	endbr64 
    2364:	31 ed                	xor    %ebp,%ebp
    2366:	49 89 d1             	mov    %rdx,%r9
    2369:	5e                   	pop    %rsi
    236a:	48 89 e2             	mov    %rsp,%rdx
    236d:	48 83 e4 f0          	and    $0xfffffffffffffff0,%rsp
    2371:	50                   	push   %rax
    2372:	54                   	push   %rsp
    2373:	45 31 c0             	xor    %r8d,%r8d
    2376:	31 c9                	xor    %ecx,%ecx
    2378:	48 8d 3d f9 10 00 00 	lea    0x10f9(%rip),%rdi        # 3478 <main>
    237f:	ff 15 53 6c 00 00    	call   *0x6c53(%rip)        # 8fd8 <__libc_start_main@GLIBC_2.34>
    2385:	f4                   	hlt    
    2386:	66 2e 0f 1f 84 00 00 	cs nopw 0x0(%rax,%rax,1)
    238d:	00 00 00 

0000000000002390 <deregister_tm_clones>:
    2390:	48 8d 3d 89 6c 00 00 	lea    0x6c89(%rip),%rdi        # 9020 <__TMC_END__>
    2397:	48 8d 05 82 6c 00 00 	lea    0x6c82(%rip),%rax        # 9020 <__TMC_END__>
    239e:	48 39 f8             	cmp    %rdi,%rax
    23a1:	74 15                	je     23b8 <deregister_tm_clones+0x28>
    23a3:	48 8b 05 36 6c 00 00 	mov    0x6c36(%rip),%rax        # 8fe0 <_ITM_deregisterTMCloneTable@Base>
    23aa:	48 85 c0             	test   %rax,%rax
    23ad:	74 09                	je     23b8 <deregister_tm_clones+0x28>
    23af:	ff e0                	jmp    *%rax
    23b1:	0f 1f 80 00 00 00 00 	nopl   0x0(%rax)
    23b8:	c3                   	ret    
    23b9:	0f 1f 80 00 00 00 00 	nopl   0x0(%rax)

00000000000023c0 <register_tm_clones>:
    23c0:	48 8d 3d 59 6c 00 00 	lea    0x6c59(%rip),%rdi        # 9020 <__TMC_END__>
    23c7:	48 8d 35 52 6c 00 00 	lea    0x6c52(%rip),%rsi        # 9020 <__TMC_END__>
    23ce:	48 29 fe             	sub    %rdi,%rsi
    23d1:	48 89 f0             	mov    %rsi,%rax
    23d4:	48 c1 ee 3f          	shr    $0x3f,%rsi
    23d8:	48 c1 f8 03          	sar    $0x3,%rax
    23dc:	48 01 c6             	add    %rax,%rsi
    23df:	48 d1 fe             	sar    %rsi
    23e2:	74 14                	je     23f8 <register_tm_clones+0x38>
    23e4:	48 8b 05 05 6c 00 00 	mov    0x6c05(%rip),%rax        # 8ff0 <_ITM_registerTMCloneTable@Base>
    23eb:	48 85 c0             	test   %rax,%rax
    23ee:	74 08                	je     23f8 <register_tm_clones+0x38>
    23f0:	ff e0                	jmp    *%rax
    23f2:	66 0f 1f 44 00 00    	nopw   0x0(%rax,%rax,1)
    23f8:	c3                   	ret    
    23f9:	0f 1f 80 00 00 00 00 	nopl   0x0(%rax)

0000000000002400 <__do_global_dtors_aux>:
    2400:	f3 0f 1e fa          	endbr64 
    2404:	80 3d 6d 6e 00 00 00 	cmpb   $0x0,0x6e6d(%rip)        # 9278 <completed.0>
    240b:	75 2b                	jne    2438 <__do_global_dtors_aux+0x38>
    240d:	55                   	push   %rbp
    240e:	48 83 3d ba 6b 00 00 	cmpq   $0x0,0x6bba(%rip)        # 8fd0 <__cxa_finalize@GLIBC_2.2.5>
    2415:	00 
    2416:	48 89 e5             	mov    %rsp,%rbp
    2419:	74 0c                	je     2427 <__do_global_dtors_aux+0x27>
    241b:	48 8b 3d e6 6b 00 00 	mov    0x6be6(%rip),%rdi        # 9008 <__dso_handle>
    2422:	e8 99 fd ff ff       	call   21c0 <__cxa_finalize@plt>
    2427:	e8 64 ff ff ff       	call   2390 <deregister_tm_clones>
    242c:	c6 05 45 6e 00 00 01 	movb   $0x1,0x6e45(%rip)        # 9278 <completed.0>
    2433:	5d                   	pop    %rbp
    2434:	c3                   	ret    
    2435:	0f 1f 00             	nopl   (%rax)
    2438:	c3                   	ret    
    2439:	0f 1f 80 00 00 00 00 	nopl   0x0(%rax)

0000000000002440 <frame_dummy>:
    2440:	f3 0f 1e fa          	endbr64 
    2444:	e9 77 ff ff ff       	jmp    23c0 <register_tm_clones>
    2449:	90                   	nop

000000000000244a <_ZN3pix6random5crandEv>:
    244a:	f3 0f 1e fa          	endbr64 
    244e:	55                   	push   %rbp
    244f:	48 89 e5             	mov    %rsp,%rbp
    2452:	e8 97 1a 00 00       	call   3eee <_ZN3pix6random4randImEET_v>
    2457:	48 89 c1             	mov    %rax,%rcx
    245a:	48 ba c5 4e ec c4 4e 	movabs $0x4ec4ec4ec4ec4ec5,%rdx
    2461:	ec c4 4e 
    2464:	48 89 c8             	mov    %rcx,%rax
    2467:	48 f7 e2             	mul    %rdx
    246a:	48 c1 ea 03          	shr    $0x3,%rdx
    246e:	48 89 d0             	mov    %rdx,%rax
    2471:	48 01 c0             	add    %rax,%rax
    2474:	48 01 d0             	add    %rdx,%rax
    2477:	48 c1 e0 02          	shl    $0x2,%rax
    247b:	48 01 d0             	add    %rdx,%rax
    247e:	48 01 c0             	add    %rax,%rax
    2481:	48 29 c1             	sub    %rax,%rcx
    2484:	48 89 ca             	mov    %rcx,%rdx
    2487:	89 d0                	mov    %edx,%eax
    2489:	83 c0 61             	add    $0x61,%eax
    248c:	5d                   	pop    %rbp
    248d:	c3                   	ret    

000000000000248e <_ZN3pix4math4factEm>:
    248e:	f3 0f 1e fa          	endbr64 
    2492:	55                   	push   %rbp
    2493:	48 89 e5             	mov    %rsp,%rbp
    2496:	48 89 7d e8          	mov    %rdi,-0x18(%rbp)
    249a:	48 83 7d e8 00       	cmpq   $0x0,-0x18(%rbp)
    249f:	74 07                	je     24a8 <_ZN3pix4math4factEm+0x1a>
    24a1:	48 83 7d e8 01       	cmpq   $0x1,-0x18(%rbp)
    24a6:	75 07                	jne    24af <_ZN3pix4math4factEm+0x21>
    24a8:	b8 01 00 00 00       	mov    $0x1,%eax
    24ad:	eb 2b                	jmp    24da <_ZN3pix4math4factEm+0x4c>
    24af:	48 8b 45 e8          	mov    -0x18(%rbp),%rax
    24b3:	48 83 e8 01          	sub    $0x1,%rax
    24b7:	48 89 45 f8          	mov    %rax,-0x8(%rbp)
    24bb:	eb 12                	jmp    24cf <_ZN3pix4math4factEm+0x41>
    24bd:	48 8b 45 e8          	mov    -0x18(%rbp),%rax
    24c1:	48 0f af 45 f8       	imul   -0x8(%rbp),%rax
    24c6:	48 89 45 e8          	mov    %rax,-0x18(%rbp)
    24ca:	48 83 6d f8 01       	subq   $0x1,-0x8(%rbp)
    24cf:	48 83 7d f8 00       	cmpq   $0x0,-0x8(%rbp)
    24d4:	75 e7                	jne    24bd <_ZN3pix4math4factEm+0x2f>
    24d6:	48 8b 45 e8          	mov    -0x18(%rbp),%rax
    24da:	5d                   	pop    %rbp
    24db:	c3                   	ret    

00000000000024dc <_ZN3pix4math3fibEm>:
    24dc:	f3 0f 1e fa          	endbr64 
    24e0:	55                   	push   %rbp
    24e1:	48 89 e5             	mov    %rsp,%rbp
    24e4:	53                   	push   %rbx
    24e5:	48 83 ec 38          	sub    $0x38,%rsp
    24e9:	48 89 7d c8          	mov    %rdi,-0x38(%rbp)
    24ed:	64 48 8b 04 25 28 00 	mov    %fs:0x28,%rax
    24f4:	00 00 
    24f6:	48 89 45 e8          	mov    %rax,-0x18(%rbp)
    24fa:	31 c0                	xor    %eax,%eax
    24fc:	48 89 e0             	mov    %rsp,%rax
    24ff:	48 89 c6             	mov    %rax,%rsi
    2502:	48 8b 45 c8          	mov    -0x38(%rbp),%rax
    2506:	48 83 c0 02          	add    $0x2,%rax
    250a:	48 89 c2             	mov    %rax,%rdx
    250d:	48 83 ea 01          	sub    $0x1,%rdx
    2511:	48 89 55 d8          	mov    %rdx,-0x28(%rbp)
    2515:	49 89 c0             	mov    %rax,%r8
    2518:	41 b9 00 00 00 00    	mov    $0x0,%r9d
    251e:	48 89 c1             	mov    %rax,%rcx
    2521:	bb 00 00 00 00       	mov    $0x0,%ebx
    2526:	48 8d 14 c5 00 00 00 	lea    0x0(,%rax,8),%rdx
    252d:	00 
    252e:	b8 10 00 00 00       	mov    $0x10,%eax
    2533:	48 83 e8 01          	sub    $0x1,%rax
    2537:	48 01 d0             	add    %rdx,%rax
    253a:	bb 10 00 00 00       	mov    $0x10,%ebx
    253f:	ba 00 00 00 00       	mov    $0x0,%edx
    2544:	48 f7 f3             	div    %rbx
    2547:	48 6b c0 10          	imul   $0x10,%rax,%rax
    254b:	48 89 c1             	mov    %rax,%rcx
    254e:	48 81 e1 00 f0 ff ff 	and    $0xfffffffffffff000,%rcx
    2555:	48 89 e2             	mov    %rsp,%rdx
    2558:	48 29 ca             	sub    %rcx,%rdx
    255b:	48 39 d4             	cmp    %rdx,%rsp
    255e:	74 12                	je     2572 <_ZN3pix4math3fibEm+0x96>
    2560:	48 81 ec 00 10 00 00 	sub    $0x1000,%rsp
    2567:	48 83 8c 24 f8 0f 00 	orq    $0x0,0xff8(%rsp)
    256e:	00 00 
    2570:	eb e9                	jmp    255b <_ZN3pix4math3fibEm+0x7f>
    2572:	48 89 c2             	mov    %rax,%rdx
    2575:	81 e2 ff 0f 00 00    	and    $0xfff,%edx
    257b:	48 29 d4             	sub    %rdx,%rsp
    257e:	48 89 c2             	mov    %rax,%rdx
    2581:	81 e2 ff 0f 00 00    	and    $0xfff,%edx
    2587:	48 85 d2             	test   %rdx,%rdx
    258a:	74 10                	je     259c <_ZN3pix4math3fibEm+0xc0>
    258c:	25 ff 0f 00 00       	and    $0xfff,%eax
    2591:	48 83 e8 08          	sub    $0x8,%rax
    2595:	48 01 e0             	add    %rsp,%rax
    2598:	48 83 08 00          	orq    $0x0,(%rax)
    259c:	48 89 e0             	mov    %rsp,%rax
    259f:	48 83 c0 07          	add    $0x7,%rax
    25a3:	48 c1 e8 03          	shr    $0x3,%rax
    25a7:	48 c1 e0 03          	shl    $0x3,%rax
    25ab:	48 89 45 e0          	mov    %rax,-0x20(%rbp)
    25af:	48 8b 45 e0          	mov    -0x20(%rbp),%rax
    25b3:	48 c7 00 00 00 00 00 	movq   $0x0,(%rax)
    25ba:	48 8b 45 e0          	mov    -0x20(%rbp),%rax
    25be:	48 c7 40 08 01 00 00 	movq   $0x1,0x8(%rax)
    25c5:	00 
    25c6:	48 c7 45 d0 02 00 00 	movq   $0x2,-0x30(%rbp)
    25cd:	00 
    25ce:	eb 34                	jmp    2604 <_ZN3pix4math3fibEm+0x128>
    25d0:	48 8b 45 d0          	mov    -0x30(%rbp),%rax
    25d4:	48 8d 50 ff          	lea    -0x1(%rax),%rdx
    25d8:	48 8b 45 e0          	mov    -0x20(%rbp),%rax
    25dc:	48 8b 0c d0          	mov    (%rax,%rdx,8),%rcx
    25e0:	48 8b 45 d0          	mov    -0x30(%rbp),%rax
    25e4:	48 8d 50 fe          	lea    -0x2(%rax),%rdx
    25e8:	48 8b 45 e0          	mov    -0x20(%rbp),%rax
    25ec:	48 8b 04 d0          	mov    (%rax,%rdx,8),%rax
    25f0:	48 01 c1             	add    %rax,%rcx
    25f3:	48 8b 45 e0          	mov    -0x20(%rbp),%rax
    25f7:	48 8b 55 d0          	mov    -0x30(%rbp),%rdx
    25fb:	48 89 0c d0          	mov    %rcx,(%rax,%rdx,8)
    25ff:	48 83 45 d0 01       	addq   $0x1,-0x30(%rbp)
    2604:	48 8b 45 d0          	mov    -0x30(%rbp),%rax
    2608:	48 3b 45 c8          	cmp    -0x38(%rbp),%rax
    260c:	76 c2                	jbe    25d0 <_ZN3pix4math3fibEm+0xf4>
    260e:	48 8b 45 e0          	mov    -0x20(%rbp),%rax
    2612:	48 8b 55 c8          	mov    -0x38(%rbp),%rdx
    2616:	48 8b 04 d0          	mov    (%rax,%rdx,8),%rax
    261a:	48 89 f4             	mov    %rsi,%rsp
    261d:	48 8b 55 e8          	mov    -0x18(%rbp),%rdx
    2621:	64 48 2b 14 25 28 00 	sub    %fs:0x28,%rdx
    2628:	00 00 
    262a:	74 05                	je     2631 <_ZN3pix4math3fibEm+0x155>
    262c:	e8 3f fc ff ff       	call   2270 <__stack_chk_fail@plt>
    2631:	48 8b 5d f8          	mov    -0x8(%rbp),%rbx
    2635:	c9                   	leave  
    2636:	c3                   	ret    

0000000000002637 <_ZN3pix4math3logEe>:
    2637:	f3 0f 1e fa          	endbr64 
    263b:	55                   	push   %rbp
    263c:	48 89 e5             	mov    %rsp,%rbp
    263f:	48 83 ec 50          	sub    $0x50,%rsp
    2643:	db 6d 10             	fldt   0x10(%rbp)
    2646:	d9 ee                	fldz   
    2648:	df f1                	fcomip %st(1),%st
    264a:	dd d8                	fstp   %st(0)
    264c:	72 2b                	jb     2679 <_ZN3pix4math3logEe+0x42>
    264e:	bf 08 00 00 00       	mov    $0x8,%edi
    2653:	e8 d8 fb ff ff       	call   2230 <__cxa_allocate_exception@plt>
    2658:	48 8d 15 69 3a 00 00 	lea    0x3a69(%rip),%rdx        # 60c8 <_ZL7STD_NaN+0x8>
    265f:	48 89 10             	mov    %rdx,(%rax)
    2662:	ba 00 00 00 00       	mov    $0x0,%edx
    2667:	48 8d 0d 52 66 00 00 	lea    0x6652(%rip),%rcx        # 8cc0 <_ZTIPKc@CXXABI_1.3>
    266e:	48 89 ce             	mov    %rcx,%rsi
    2671:	48 89 c7             	mov    %rax,%rdi
    2674:	e8 97 fc ff ff       	call   2310 <__cxa_throw@plt>
    2679:	d9 ee                	fldz   
    267b:	db 7d c0             	fstpt  -0x40(%rbp)
    267e:	db 6d 10             	fldt   0x10(%rbp)
    2681:	d9 e8                	fld1   
    2683:	de e9                	fsubrp %st,%st(1)
    2685:	db 6d 10             	fldt   0x10(%rbp)
    2688:	d9 e8                	fld1   
    268a:	de c1                	faddp  %st,%st(1)
    268c:	de f9                	fdivrp %st,%st(1)
    268e:	db 7d e0             	fstpt  -0x20(%rbp)
    2691:	db 6d e0             	fldt   -0x20(%rbp)
    2694:	db 7d d0             	fstpt  -0x30(%rbp)
    2697:	db 6d e0             	fldt   -0x20(%rbp)
    269a:	d8 c8                	fmul   %st(0),%st
    269c:	db 7d f0             	fstpt  -0x10(%rbp)
    269f:	48 c7 45 b8 41 42 0f 	movq   $0xf4241,-0x48(%rbp)
    26a6:	00 
    26a7:	48 c7 45 b0 01 00 00 	movq   $0x1,-0x50(%rbp)
    26ae:	00 
    26af:	eb 4f                	jmp    2700 <_ZN3pix4math3logEe+0xc9>
    26b1:	ff 75 d8             	push   -0x28(%rbp)
    26b4:	ff 75 d0             	push   -0x30(%rbp)
    26b7:	e8 9b 18 00 00       	call   3f57 <_ZN3pix4math3absIeEET_S2_>
    26bc:	48 83 c4 10          	add    $0x10,%rsp
    26c0:	db 2d 4a 3d 00 00    	fldt   0x3d4a(%rip)        # 6410 <_ZL9PHASE_MAX+0x210>
    26c6:	df f1                	fcomip %st(1),%st
    26c8:	dd d8                	fstp   %st(0)
    26ca:	0f 97 c0             	seta   %al
    26cd:	84 c0                	test   %al,%al
    26cf:	75 3b                	jne    270c <_ZN3pix4math3logEe+0xd5>
    26d1:	df 6d b0             	fildll -0x50(%rbp)
    26d4:	48 83 7d b0 00       	cmpq   $0x0,-0x50(%rbp)
    26d9:	79 08                	jns    26e3 <_ZN3pix4math3logEe+0xac>
    26db:	db 2d 3f 3d 00 00    	fldt   0x3d3f(%rip)        # 6420 <_ZL9PHASE_MAX+0x220>
    26e1:	de c1                	faddp  %st,%st(1)
    26e3:	db 6d d0             	fldt   -0x30(%rbp)
    26e6:	de f1                	fdivp  %st,%st(1)
    26e8:	db 6d c0             	fldt   -0x40(%rbp)
    26eb:	de c1                	faddp  %st,%st(1)
    26ed:	db 7d c0             	fstpt  -0x40(%rbp)
    26f0:	db 6d d0             	fldt   -0x30(%rbp)
    26f3:	db 6d f0             	fldt   -0x10(%rbp)
    26f6:	de c9                	fmulp  %st,%st(1)
    26f8:	db 7d d0             	fstpt  -0x30(%rbp)
    26fb:	48 83 45 b0 02       	addq   $0x2,-0x50(%rbp)
    2700:	48 81 7d b0 40 42 0f 	cmpq   $0xf4240,-0x50(%rbp)
    2707:	00 
    2708:	76 a7                	jbe    26b1 <_ZN3pix4math3logEe+0x7a>
    270a:	eb 01                	jmp    270d <_ZN3pix4math3logEe+0xd6>
    270c:	90                   	nop
    270d:	db 6d c0             	fldt   -0x40(%rbp)
    2710:	d8 c0                	fadd   %st(0),%st
    2712:	c9                   	leave  
    2713:	c3                   	ret    

0000000000002714 <_ZN3pix4math3logEee>:
    2714:	f3 0f 1e fa          	endbr64 
    2718:	55                   	push   %rbp
    2719:	48 89 e5             	mov    %rsp,%rbp
    271c:	48 83 ec 10          	sub    $0x10,%rsp
    2720:	ff 75 18             	push   0x18(%rbp)
    2723:	ff 75 10             	push   0x10(%rbp)
    2726:	e8 0c ff ff ff       	call   2637 <_ZN3pix4math3logEe>
    272b:	48 83 c4 10          	add    $0x10,%rsp
    272f:	db 7d f0             	fstpt  -0x10(%rbp)
    2732:	ff 75 28             	push   0x28(%rbp)
    2735:	ff 75 20             	push   0x20(%rbp)
    2738:	e8 fa fe ff ff       	call   2637 <_ZN3pix4math3logEe>
    273d:	48 83 c4 10          	add    $0x10,%rsp
    2741:	db 6d f0             	fldt   -0x10(%rbp)
    2744:	de f1                	fdivp  %st,%st(1)
    2746:	c9                   	leave  
    2747:	c3                   	ret    

0000000000002748 <_ZN3pix4math3expEe>:
    2748:	f3 0f 1e fa          	endbr64 
    274c:	55                   	push   %rbp
    274d:	48 89 e5             	mov    %rsp,%rbp
    2750:	48 83 ec 40          	sub    $0x40,%rsp
    2754:	db 6d 10             	fldt   0x10(%rbp)
    2757:	d9 ee                	fldz   
    2759:	df f1                	fcomip %st(1),%st
    275b:	dd d8                	fstp   %st(0)
    275d:	0f 97 c0             	seta   %al
    2760:	88 45 d7             	mov    %al,-0x29(%rbp)
    2763:	ff 75 18             	push   0x18(%rbp)
    2766:	ff 75 10             	push   0x10(%rbp)
    2769:	e8 e9 17 00 00       	call   3f57 <_ZN3pix4math3absIeEET_S2_>
    276e:	48 83 c4 10          	add    $0x10,%rsp
    2772:	db 7d 10             	fstpt  0x10(%rbp)
    2775:	d9 e8                	fld1   
    2777:	db 7d e0             	fstpt  -0x20(%rbp)
    277a:	d9 e8                	fld1   
    277c:	db 7d f0             	fstpt  -0x10(%rbp)
    277f:	48 c7 45 d8 00 00 00 	movq   $0x0,-0x28(%rbp)
    2786:	00 
    2787:	eb 59                	jmp    27e2 <_ZN3pix4math3expEe+0x9a>
    2789:	48 8b 45 d8          	mov    -0x28(%rbp),%rax
    278d:	48 83 c0 01          	add    $0x1,%rax
    2791:	48 89 45 c8          	mov    %rax,-0x38(%rbp)
    2795:	df 6d c8             	fildll -0x38(%rbp)
    2798:	48 85 c0             	test   %rax,%rax
    279b:	79 08                	jns    27a5 <_ZN3pix4math3expEe+0x5d>
    279d:	db 2d 7d 3c 00 00    	fldt   0x3c7d(%rip)        # 6420 <_ZL9PHASE_MAX+0x220>
    27a3:	de c1                	faddp  %st,%st(1)
    27a5:	db 6d 10             	fldt   0x10(%rbp)
    27a8:	de f1                	fdivp  %st,%st(1)
    27aa:	db 6d f0             	fldt   -0x10(%rbp)
    27ad:	de c9                	fmulp  %st,%st(1)
    27af:	db 7d f0             	fstpt  -0x10(%rbp)
    27b2:	ff 75 f8             	push   -0x8(%rbp)
    27b5:	ff 75 f0             	push   -0x10(%rbp)
    27b8:	e8 9a 17 00 00       	call   3f57 <_ZN3pix4math3absIeEET_S2_>
    27bd:	48 83 c4 10          	add    $0x10,%rsp
    27c1:	db 2d 49 3c 00 00    	fldt   0x3c49(%rip)        # 6410 <_ZL9PHASE_MAX+0x210>
    27c7:	df f1                	fcomip %st(1),%st
    27c9:	dd d8                	fstp   %st(0)
    27cb:	0f 97 c0             	seta   %al
    27ce:	84 c0                	test   %al,%al
    27d0:	75 1c                	jne    27ee <_ZN3pix4math3expEe+0xa6>
    27d2:	db 6d e0             	fldt   -0x20(%rbp)
    27d5:	db 6d f0             	fldt   -0x10(%rbp)
    27d8:	de c1                	faddp  %st,%st(1)
    27da:	db 7d e0             	fstpt  -0x20(%rbp)
    27dd:	48 83 45 d8 01       	addq   $0x1,-0x28(%rbp)
    27e2:	48 81 7d d8 3f 42 0f 	cmpq   $0xf423f,-0x28(%rbp)
    27e9:	00 
    27ea:	76 9d                	jbe    2789 <_ZN3pix4math3expEe+0x41>
    27ec:	eb 01                	jmp    27ef <_ZN3pix4math3expEe+0xa7>
    27ee:	90                   	nop
    27ef:	80 7d d7 00          	cmpb   $0x0,-0x29(%rbp)
    27f3:	74 09                	je     27fe <_ZN3pix4math3expEe+0xb6>
    27f5:	d9 e8                	fld1   
    27f7:	db 6d e0             	fldt   -0x20(%rbp)
    27fa:	de f9                	fdivrp %st,%st(1)
    27fc:	eb 03                	jmp    2801 <_ZN3pix4math3expEe+0xb9>
    27fe:	db 6d e0             	fldt   -0x20(%rbp)
    2801:	c9                   	leave  
    2802:	c3                   	ret    

0000000000002803 <_ZN3pix4math3powEee>:
    2803:	f3 0f 1e fa          	endbr64 
    2807:	55                   	push   %rbp
    2808:	48 89 e5             	mov    %rsp,%rbp
    280b:	48 83 ec 40          	sub    $0x40,%rsp
    280f:	db 6d 10             	fldt   0x10(%rbp)
    2812:	d9 ee                	fldz   
    2814:	df e9                	fucomip %st(1),%st
    2816:	dd d8                	fstp   %st(0)
    2818:	7a 4c                	jp     2866 <_ZN3pix4math3powEee+0x63>
    281a:	db 6d 10             	fldt   0x10(%rbp)
    281d:	d9 ee                	fldz   
    281f:	df e9                	fucomip %st(1),%st
    2821:	dd d8                	fstp   %st(0)
    2823:	75 41                	jne    2866 <_ZN3pix4math3powEee+0x63>
    2825:	db 6d 20             	fldt   0x20(%rbp)
    2828:	d9 ee                	fldz   
    282a:	df e9                	fucomip %st(1),%st
    282c:	dd d8                	fstp   %st(0)
    282e:	7a 36                	jp     2866 <_ZN3pix4math3powEee+0x63>
    2830:	db 6d 20             	fldt   0x20(%rbp)
    2833:	d9 ee                	fldz   
    2835:	df e9                	fucomip %st(1),%st
    2837:	dd d8                	fstp   %st(0)
    2839:	75 2b                	jne    2866 <_ZN3pix4math3powEee+0x63>
    283b:	bf 08 00 00 00       	mov    $0x8,%edi
    2840:	e8 eb f9 ff ff       	call   2230 <__cxa_allocate_exception@plt>
    2845:	48 8d 15 9e 38 00 00 	lea    0x389e(%rip),%rdx        # 60ea <_ZL7STD_NaN+0x2a>
    284c:	48 89 10             	mov    %rdx,(%rax)
    284f:	ba 00 00 00 00       	mov    $0x0,%edx
    2854:	48 8d 0d 65 64 00 00 	lea    0x6465(%rip),%rcx        # 8cc0 <_ZTIPKc@CXXABI_1.3>
    285b:	48 89 ce             	mov    %rcx,%rsi
    285e:	48 89 c7             	mov    %rax,%rdi
    2861:	e8 aa fa ff ff       	call   2310 <__cxa_throw@plt>
    2866:	db 6d 10             	fldt   0x10(%rbp)
    2869:	d9 ee                	fldz   
    286b:	df e9                	fucomip %st(1),%st
    286d:	dd d8                	fstp   %st(0)
    286f:	7a 12                	jp     2883 <_ZN3pix4math3powEee+0x80>
    2871:	db 6d 10             	fldt   0x10(%rbp)
    2874:	d9 ee                	fldz   
    2876:	df e9                	fucomip %st(1),%st
    2878:	dd d8                	fstp   %st(0)
    287a:	75 07                	jne    2883 <_ZN3pix4math3powEee+0x80>
    287c:	d9 ee                	fldz   
    287e:	e9 e5 01 00 00       	jmp    2a68 <_ZN3pix4math3powEee+0x265>
    2883:	db 6d 20             	fldt   0x20(%rbp)
    2886:	d9 ee                	fldz   
    2888:	df e9                	fucomip %st(1),%st
    288a:	dd d8                	fstp   %st(0)
    288c:	7a 12                	jp     28a0 <_ZN3pix4math3powEee+0x9d>
    288e:	db 6d 20             	fldt   0x20(%rbp)
    2891:	d9 ee                	fldz   
    2893:	df e9                	fucomip %st(1),%st
    2895:	dd d8                	fstp   %st(0)
    2897:	75 07                	jne    28a0 <_ZN3pix4math3powEee+0x9d>
    2899:	d9 e8                	fld1   
    289b:	e9 c8 01 00 00       	jmp    2a68 <_ZN3pix4math3powEee+0x265>
    28a0:	db 6d 20             	fldt   0x20(%rbp)
    28a3:	d9 e8                	fld1   
    28a5:	df e9                	fucomip %st(1),%st
    28a7:	dd d8                	fstp   %st(0)
    28a9:	7a 13                	jp     28be <_ZN3pix4math3powEee+0xbb>
    28ab:	db 6d 20             	fldt   0x20(%rbp)
    28ae:	d9 e8                	fld1   
    28b0:	df e9                	fucomip %st(1),%st
    28b2:	dd d8                	fstp   %st(0)
    28b4:	75 08                	jne    28be <_ZN3pix4math3powEee+0xbb>
    28b6:	db 6d 10             	fldt   0x10(%rbp)
    28b9:	e9 aa 01 00 00       	jmp    2a68 <_ZN3pix4math3powEee+0x265>
    28be:	db 6d 20             	fldt   0x20(%rbp)
    28c1:	db 2d 69 3b 00 00    	fldt   0x3b69(%rip)        # 6430 <_ZL9PHASE_MAX+0x230>
    28c7:	df e9                	fucomip %st(1),%st
    28c9:	dd d8                	fstp   %st(0)
    28cb:	7a 19                	jp     28e6 <_ZN3pix4math3powEee+0xe3>
    28cd:	db 6d 20             	fldt   0x20(%rbp)
    28d0:	db 2d 5a 3b 00 00    	fldt   0x3b5a(%rip)        # 6430 <_ZL9PHASE_MAX+0x230>
    28d6:	df e9                	fucomip %st(1),%st
    28d8:	dd d8                	fstp   %st(0)
    28da:	75 0a                	jne    28e6 <_ZN3pix4math3powEee+0xe3>
    28dc:	db 6d 10             	fldt   0x10(%rbp)
    28df:	d8 c8                	fmul   %st(0),%st
    28e1:	e9 82 01 00 00       	jmp    2a68 <_ZN3pix4math3powEee+0x265>
    28e6:	db 6d 20             	fldt   0x20(%rbp)
    28e9:	d9 ee                	fldz   
    28eb:	df f1                	fcomip %st(1),%st
    28ed:	dd d8                	fstp   %st(0)
    28ef:	0f 97 c0             	seta   %al
    28f2:	88 45 ef             	mov    %al,-0x11(%rbp)
    28f5:	ff 75 28             	push   0x28(%rbp)
    28f8:	ff 75 20             	push   0x20(%rbp)
    28fb:	e8 57 16 00 00       	call   3f57 <_ZN3pix4math3absIeEET_S2_>
    2900:	48 83 c4 10          	add    $0x10,%rsp
    2904:	db 7d 20             	fstpt  0x20(%rbp)
    2907:	db 6d 10             	fldt   0x10(%rbp)
    290a:	d9 e8                	fld1   
    290c:	d9 e0                	fchs   
    290e:	df e9                	fucomip %st(1),%st
    2910:	dd d8                	fstp   %st(0)
    2912:	7a 35                	jp     2949 <_ZN3pix4math3powEee+0x146>
    2914:	db 6d 10             	fldt   0x10(%rbp)
    2917:	d9 e8                	fld1   
    2919:	d9 e0                	fchs   
    291b:	df e9                	fucomip %st(1),%st
    291d:	dd d8                	fstp   %st(0)
    291f:	75 28                	jne    2949 <_ZN3pix4math3powEee+0x146>
    2921:	ff 75 28             	push   0x28(%rbp)
    2924:	ff 75 20             	push   0x20(%rbp)
    2927:	e8 4a 16 00 00       	call   3f76 <_ZN3pix4math5floorIeEET_S2_>
    292c:	48 83 c4 10          	add    $0x10,%rsp
    2930:	db 6d 20             	fldt   0x20(%rbp)
    2933:	df e9                	fucomip %st(1),%st
    2935:	7a 10                	jp     2947 <_ZN3pix4math3powEee+0x144>
    2937:	db 6d 20             	fldt   0x20(%rbp)
    293a:	df e9                	fucomip %st(1),%st
    293c:	dd d8                	fstp   %st(0)
    293e:	75 09                	jne    2949 <_ZN3pix4math3powEee+0x146>
    2940:	b8 01 00 00 00       	mov    $0x1,%eax
    2945:	eb 07                	jmp    294e <_ZN3pix4math3powEee+0x14b>
    2947:	dd d8                	fstp   %st(0)
    2949:	b8 00 00 00 00       	mov    $0x0,%eax
    294e:	84 c0                	test   %al,%al
    2950:	74 36                	je     2988 <_ZN3pix4math3powEee+0x185>
    2952:	db 6d 20             	fldt   0x20(%rbp)
    2955:	d9 7d de             	fnstcw -0x22(%rbp)
    2958:	0f b7 45 de          	movzwl -0x22(%rbp),%eax
    295c:	80 cc 0c             	or     $0xc,%ah
    295f:	66 89 45 dc          	mov    %ax,-0x24(%rbp)
    2963:	d9 6d dc             	fldcw  -0x24(%rbp)
    2966:	df 7d c0             	fistpll -0x40(%rbp)
    2969:	d9 6d de             	fldcw  -0x22(%rbp)
    296c:	48 8b 45 c0          	mov    -0x40(%rbp),%rax
    2970:	83 e0 01             	and    $0x1,%eax
    2973:	48 85 c0             	test   %rax,%rax
    2976:	75 07                	jne    297f <_ZN3pix4math3powEee+0x17c>
    2978:	d9 e8                	fld1   
    297a:	e9 e9 00 00 00       	jmp    2a68 <_ZN3pix4math3powEee+0x265>
    297f:	d9 e8                	fld1   
    2981:	d9 e0                	fchs   
    2983:	e9 e0 00 00 00       	jmp    2a68 <_ZN3pix4math3powEee+0x265>
    2988:	ff 75 18             	push   0x18(%rbp)
    298b:	ff 75 10             	push   0x10(%rbp)
    298e:	e8 c4 15 00 00       	call   3f57 <_ZN3pix4math3absIeEET_S2_>
    2993:	48 83 c4 10          	add    $0x10,%rsp
    2997:	48 8d 64 24 f0       	lea    -0x10(%rsp),%rsp
    299c:	db 3c 24             	fstpt  (%rsp)
    299f:	e8 93 fc ff ff       	call   2637 <_ZN3pix4math3logEe>
    29a4:	48 83 c4 10          	add    $0x10,%rsp
    29a8:	db 6d 20             	fldt   0x20(%rbp)
    29ab:	de c9                	fmulp  %st,%st(1)
    29ad:	48 8d 64 24 f0       	lea    -0x10(%rsp),%rsp
    29b2:	db 3c 24             	fstpt  (%rsp)
    29b5:	e8 8e fd ff ff       	call   2748 <_ZN3pix4math3expEe>
    29ba:	48 83 c4 10          	add    $0x10,%rsp
    29be:	db 7d f0             	fstpt  -0x10(%rbp)
    29c1:	80 7d ef 00          	cmpb   $0x0,-0x11(%rbp)
    29c5:	74 0a                	je     29d1 <_ZN3pix4math3powEee+0x1ce>
    29c7:	d9 e8                	fld1   
    29c9:	db 6d f0             	fldt   -0x10(%rbp)
    29cc:	de f9                	fdivrp %st,%st(1)
    29ce:	db 7d f0             	fstpt  -0x10(%rbp)
    29d1:	db 6d 10             	fldt   0x10(%rbp)
    29d4:	d9 ee                	fldz   
    29d6:	df f1                	fcomip %st(1),%st
    29d8:	dd d8                	fstp   %st(0)
    29da:	76 28                	jbe    2a04 <_ZN3pix4math3powEee+0x201>
    29dc:	ff 75 28             	push   0x28(%rbp)
    29df:	ff 75 20             	push   0x20(%rbp)
    29e2:	e8 8f 15 00 00       	call   3f76 <_ZN3pix4math5floorIeEET_S2_>
    29e7:	48 83 c4 10          	add    $0x10,%rsp
    29eb:	db 6d 20             	fldt   0x20(%rbp)
    29ee:	df e9                	fucomip %st(1),%st
    29f0:	7a 10                	jp     2a02 <_ZN3pix4math3powEee+0x1ff>
    29f2:	db 6d 20             	fldt   0x20(%rbp)
    29f5:	df e9                	fucomip %st(1),%st
    29f7:	dd d8                	fstp   %st(0)
    29f9:	75 09                	jne    2a04 <_ZN3pix4math3powEee+0x201>
    29fb:	b8 01 00 00 00       	mov    $0x1,%eax
    2a00:	eb 07                	jmp    2a09 <_ZN3pix4math3powEee+0x206>
    2a02:	dd d8                	fstp   %st(0)
    2a04:	b8 00 00 00 00       	mov    $0x0,%eax
    2a09:	84 c0                	test   %al,%al
    2a0b:	74 3e                	je     2a4b <_ZN3pix4math3powEee+0x248>
    2a0d:	db 6d 20             	fldt   0x20(%rbp)
    2a10:	d9 7d de             	fnstcw -0x22(%rbp)
    2a13:	0f b7 45 de          	movzwl -0x22(%rbp),%eax
    2a17:	80 cc 0c             	or     $0xc,%ah
    2a1a:	66 89 45 dc          	mov    %ax,-0x24(%rbp)
    2a1e:	d9 6d dc             	fldcw  -0x24(%rbp)
    2a21:	df 7d c0             	fistpll -0x40(%rbp)
    2a24:	d9 6d de             	fldcw  -0x22(%rbp)
    2a27:	48 8b 45 c0          	mov    -0x40(%rbp),%rax
    2a2b:	83 e0 01             	and    $0x1,%eax
    2a2e:	48 85 c0             	test   %rax,%rax
    2a31:	74 32                	je     2a65 <_ZN3pix4math3powEee+0x262>
    2a33:	db 6d f0             	fldt   -0x10(%rbp)
    2a36:	d9 e0                	fchs   
    2a38:	db 7d c0             	fstpt  -0x40(%rbp)
    2a3b:	48 8b 45 c0          	mov    -0x40(%rbp),%rax
    2a3f:	8b 55 c8             	mov    -0x38(%rbp),%edx
    2a42:	48 89 45 f0          	mov    %rax,-0x10(%rbp)
    2a46:	89 55 f8             	mov    %edx,-0x8(%rbp)
    2a49:	eb 1a                	jmp    2a65 <_ZN3pix4math3powEee+0x262>
    2a4b:	db 6d 10             	fldt   0x10(%rbp)
    2a4e:	d9 ee                	fldz   
    2a50:	df f1                	fcomip %st(1),%st
    2a52:	dd d8                	fstp   %st(0)
    2a54:	76 0f                	jbe    2a65 <_ZN3pix4math3powEee+0x262>
    2a56:	e8 74 14 00 00       	call   3ecf <_ZN3pix4math3NaNEv>
    2a5b:	f2 0f 11 45 c0       	movsd  %xmm0,-0x40(%rbp)
    2a60:	dd 45 c0             	fldl   -0x40(%rbp)
    2a63:	eb 03                	jmp    2a68 <_ZN3pix4math3powEee+0x265>
    2a65:	db 6d f0             	fldt   -0x10(%rbp)
    2a68:	c9                   	leave  
    2a69:	c3                   	ret    

0000000000002a6a <_ZN3pix4math4rootEee>:
    2a6a:	f3 0f 1e fa          	endbr64 
    2a6e:	55                   	push   %rbp
    2a6f:	48 89 e5             	mov    %rsp,%rbp
    2a72:	48 83 ec 10          	sub    $0x10,%rsp
    2a76:	db 6d 10             	fldt   0x10(%rbp)
    2a79:	d9 ee                	fldz   
    2a7b:	df f1                	fcomip %st(1),%st
    2a7d:	dd d8                	fstp   %st(0)
    2a7f:	76 2b                	jbe    2aac <_ZN3pix4math4rootEee+0x42>
    2a81:	bf 08 00 00 00       	mov    $0x8,%edi
    2a86:	e8 a5 f7 ff ff       	call   2230 <__cxa_allocate_exception@plt>
    2a8b:	48 8d 15 72 36 00 00 	lea    0x3672(%rip),%rdx        # 6104 <_ZL7STD_NaN+0x44>
    2a92:	48 89 10             	mov    %rdx,(%rax)
    2a95:	ba 00 00 00 00       	mov    $0x0,%edx
    2a9a:	48 8d 0d 1f 62 00 00 	lea    0x621f(%rip),%rcx        # 8cc0 <_ZTIPKc@CXXABI_1.3>
    2aa1:	48 89 ce             	mov    %rcx,%rsi
    2aa4:	48 89 c7             	mov    %rax,%rdi
    2aa7:	e8 64 f8 ff ff       	call   2310 <__cxa_throw@plt>
    2aac:	db 6d 20             	fldt   0x20(%rbp)
    2aaf:	d9 ee                	fldz   
    2ab1:	df e9                	fucomip %st(1),%st
    2ab3:	dd d8                	fstp   %st(0)
    2ab5:	7a 36                	jp     2aed <_ZN3pix4math4rootEee+0x83>
    2ab7:	db 6d 20             	fldt   0x20(%rbp)
    2aba:	d9 ee                	fldz   
    2abc:	df e9                	fucomip %st(1),%st
    2abe:	dd d8                	fstp   %st(0)
    2ac0:	75 2b                	jne    2aed <_ZN3pix4math4rootEee+0x83>
    2ac2:	bf 08 00 00 00       	mov    $0x8,%edi
    2ac7:	e8 64 f7 ff ff       	call   2230 <__cxa_allocate_exception@plt>
    2acc:	48 8d 15 4f 36 00 00 	lea    0x364f(%rip),%rdx        # 6122 <_ZL7STD_NaN+0x62>
    2ad3:	48 89 10             	mov    %rdx,(%rax)
    2ad6:	ba 00 00 00 00       	mov    $0x0,%edx
    2adb:	48 8d 0d de 61 00 00 	lea    0x61de(%rip),%rcx        # 8cc0 <_ZTIPKc@CXXABI_1.3>
    2ae2:	48 89 ce             	mov    %rcx,%rsi
    2ae5:	48 89 c7             	mov    %rax,%rdi
    2ae8:	e8 23 f8 ff ff       	call   2310 <__cxa_throw@plt>
    2aed:	db 6d 20             	fldt   0x20(%rbp)
    2af0:	d9 e8                	fld1   
    2af2:	df e9                	fucomip %st(1),%st
    2af4:	dd d8                	fstp   %st(0)
    2af6:	7a 14                	jp     2b0c <_ZN3pix4math4rootEee+0xa2>
    2af8:	db 6d 20             	fldt   0x20(%rbp)
    2afb:	d9 e8                	fld1   
    2afd:	df e9                	fucomip %st(1),%st
    2aff:	dd d8                	fstp   %st(0)
    2b01:	75 09                	jne    2b0c <_ZN3pix4math4rootEee+0xa2>
    2b03:	48 8b 45 10          	mov    0x10(%rbp),%rax
    2b07:	8b 55 18             	mov    0x18(%rbp),%edx
    2b0a:	eb 29                	jmp    2b35 <_ZN3pix4math4rootEee+0xcb>
    2b0c:	d9 e8                	fld1   
    2b0e:	db 6d 20             	fldt   0x20(%rbp)
    2b11:	de f9                	fdivrp %st,%st(1)
    2b13:	48 8d 64 24 f0       	lea    -0x10(%rsp),%rsp
    2b18:	db 3c 24             	fstpt  (%rsp)
    2b1b:	ff 75 18             	push   0x18(%rbp)
    2b1e:	ff 75 10             	push   0x10(%rbp)
    2b21:	e8 dd fc ff ff       	call   2803 <_ZN3pix4math3powEee>
    2b26:	48 83 c4 20          	add    $0x20,%rsp
    2b2a:	db 7d f0             	fstpt  -0x10(%rbp)
    2b2d:	48 8b 45 f0          	mov    -0x10(%rbp),%rax
    2b31:	8b 55 f8             	mov    -0x8(%rbp),%edx
    2b34:	90                   	nop
    2b35:	48 89 45 f0          	mov    %rax,-0x10(%rbp)
    2b39:	89 55 f8             	mov    %edx,-0x8(%rbp)
    2b3c:	db 6d f0             	fldt   -0x10(%rbp)
    2b3f:	c9                   	leave  
    2b40:	c3                   	ret    

0000000000002b41 <_ZN3pix4math6permutEmm>:
    2b41:	f3 0f 1e fa          	endbr64 
    2b45:	55                   	push   %rbp
    2b46:	48 89 e5             	mov    %rsp,%rbp
    2b49:	53                   	push   %rbx
    2b4a:	48 83 ec 10          	sub    $0x10,%rsp
    2b4e:	48 89 7d f0          	mov    %rdi,-0x10(%rbp)
    2b52:	48 89 75 e8          	mov    %rsi,-0x18(%rbp)
    2b56:	48 8b 45 e8          	mov    -0x18(%rbp),%rax
    2b5a:	48 3b 45 f0          	cmp    -0x10(%rbp),%rax
    2b5e:	76 07                	jbe    2b67 <_ZN3pix4math6permutEmm+0x26>
    2b60:	b8 00 00 00 00       	mov    $0x0,%eax
    2b65:	eb 2d                	jmp    2b94 <_ZN3pix4math6permutEmm+0x53>
    2b67:	48 8b 45 f0          	mov    -0x10(%rbp),%rax
    2b6b:	48 89 c7             	mov    %rax,%rdi
    2b6e:	e8 1b f9 ff ff       	call   248e <_ZN3pix4math4factEm>
    2b73:	48 89 c3             	mov    %rax,%rbx
    2b76:	48 8b 45 f0          	mov    -0x10(%rbp),%rax
    2b7a:	48 2b 45 e8          	sub    -0x18(%rbp),%rax
    2b7e:	48 89 c7             	mov    %rax,%rdi
    2b81:	e8 08 f9 ff ff       	call   248e <_ZN3pix4math4factEm>
    2b86:	48 89 c1             	mov    %rax,%rcx
    2b89:	48 89 d8             	mov    %rbx,%rax
    2b8c:	ba 00 00 00 00       	mov    $0x0,%edx
    2b91:	48 f7 f1             	div    %rcx
    2b94:	48 8b 5d f8          	mov    -0x8(%rbp),%rbx
    2b98:	c9                   	leave  
    2b99:	c3                   	ret    

0000000000002b9a <_ZN3pix4math4combEmm>:
    2b9a:	f3 0f 1e fa          	endbr64 
    2b9e:	55                   	push   %rbp
    2b9f:	48 89 e5             	mov    %rsp,%rbp
    2ba2:	41 54                	push   %r12
    2ba4:	53                   	push   %rbx
    2ba5:	48 83 ec 10          	sub    $0x10,%rsp
    2ba9:	48 89 7d e8          	mov    %rdi,-0x18(%rbp)
    2bad:	48 89 75 e0          	mov    %rsi,-0x20(%rbp)
    2bb1:	48 8b 45 e0          	mov    -0x20(%rbp),%rax
    2bb5:	48 3b 45 e8          	cmp    -0x18(%rbp),%rax
    2bb9:	76 07                	jbe    2bc2 <_ZN3pix4math4combEmm+0x28>
    2bbb:	b8 00 00 00 00       	mov    $0x0,%eax
    2bc0:	eb 43                	jmp    2c05 <_ZN3pix4math4combEmm+0x6b>
    2bc2:	48 8b 45 e8          	mov    -0x18(%rbp),%rax
    2bc6:	48 89 c7             	mov    %rax,%rdi
    2bc9:	e8 c0 f8 ff ff       	call   248e <_ZN3pix4math4factEm>
    2bce:	48 89 c3             	mov    %rax,%rbx
    2bd1:	48 8b 45 e0          	mov    -0x20(%rbp),%rax
    2bd5:	48 89 c7             	mov    %rax,%rdi
    2bd8:	e8 b1 f8 ff ff       	call   248e <_ZN3pix4math4factEm>
    2bdd:	49 89 c4             	mov    %rax,%r12
    2be0:	48 8b 45 e8          	mov    -0x18(%rbp),%rax
    2be4:	48 2b 45 e0          	sub    -0x20(%rbp),%rax
    2be8:	48 89 c7             	mov    %rax,%rdi
    2beb:	e8 9e f8 ff ff       	call   248e <_ZN3pix4math4factEm>
    2bf0:	4c 89 e2             	mov    %r12,%rdx
    2bf3:	48 0f af d0          	imul   %rax,%rdx
    2bf7:	48 89 d1             	mov    %rdx,%rcx
    2bfa:	48 89 d8             	mov    %rbx,%rax
    2bfd:	ba 00 00 00 00       	mov    $0x0,%edx
    2c02:	48 f7 f1             	div    %rcx
    2c05:	48 83 c4 10          	add    $0x10,%rsp
    2c09:	5b                   	pop    %rbx
    2c0a:	41 5c                	pop    %r12
    2c0c:	5d                   	pop    %rbp
    2c0d:	c3                   	ret    

0000000000002c0e <_ZN3pix4math10kron_deltaEmm>:
    2c0e:	f3 0f 1e fa          	endbr64 
    2c12:	55                   	push   %rbp
    2c13:	48 89 e5             	mov    %rsp,%rbp
    2c16:	48 89 7d f8          	mov    %rdi,-0x8(%rbp)
    2c1a:	48 89 75 f0          	mov    %rsi,-0x10(%rbp)
    2c1e:	48 8b 45 f8          	mov    -0x8(%rbp),%rax
    2c22:	48 3b 45 f0          	cmp    -0x10(%rbp),%rax
    2c26:	0f 94 c0             	sete   %al
    2c29:	0f b6 c0             	movzbl %al,%eax
    2c2c:	5d                   	pop    %rbp
    2c2d:	c3                   	ret    

0000000000002c2e <_ZN3pix4math4trig3sinEe>:
    2c2e:	f3 0f 1e fa          	endbr64 
    2c32:	55                   	push   %rbp
    2c33:	48 89 e5             	mov    %rsp,%rbp
    2c36:	48 83 ec 40          	sub    $0x40,%rsp
    2c3a:	db 6d 10             	fldt   0x10(%rbp)
    2c3d:	d9 ee                	fldz   
    2c3f:	df f1                	fcomip %st(1),%st
    2c41:	dd d8                	fstp   %st(0)
    2c43:	0f 97 c0             	seta   %al
    2c46:	88 45 d7             	mov    %al,-0x29(%rbp)
    2c49:	ff 75 18             	push   0x18(%rbp)
    2c4c:	ff 75 10             	push   0x10(%rbp)
    2c4f:	e8 03 13 00 00       	call   3f57 <_ZN3pix4math3absIeEET_S2_>
    2c54:	48 83 c4 10          	add    $0x10,%rsp
    2c58:	db 2d e2 37 00 00    	fldt   0x37e2(%rip)        # 6440 <_ZL9PHASE_MAX+0x240>
    2c5e:	48 8d 64 24 f0       	lea    -0x10(%rsp),%rsp
    2c63:	db 3c 24             	fstpt  (%rsp)
    2c66:	48 8d 64 24 f0       	lea    -0x10(%rsp),%rsp
    2c6b:	db 3c 24             	fstpt  (%rsp)
    2c6e:	e8 2a 13 00 00       	call   3f9d <_ZN3pix4math5f_modIeEET_S2_S2_>
    2c73:	48 83 c4 20          	add    $0x20,%rsp
    2c77:	db 7d 10             	fstpt  0x10(%rbp)
    2c7a:	db 6d 10             	fldt   0x10(%rbp)
    2c7d:	db 7d e0             	fstpt  -0x20(%rbp)
    2c80:	db 6d 10             	fldt   0x10(%rbp)
    2c83:	db 7d f0             	fstpt  -0x10(%rbp)
    2c86:	db 6d 10             	fldt   0x10(%rbp)
    2c89:	d8 c8                	fmul   %st(0),%st
    2c8b:	db 7d 10             	fstpt  0x10(%rbp)
    2c8e:	48 c7 45 d8 00 00 00 	movq   $0x0,-0x28(%rbp)
    2c95:	00 
    2c96:	eb 6b                	jmp    2d03 <_ZN3pix4math4trig3sinEe+0xd5>
    2c98:	db 6d 10             	fldt   0x10(%rbp)
    2c9b:	d9 e0                	fchs   
    2c9d:	48 8b 45 d8          	mov    -0x28(%rbp),%rax
    2ca1:	48 8d 50 01          	lea    0x1(%rax),%rdx
    2ca5:	48 8b 45 d8          	mov    -0x28(%rbp),%rax
    2ca9:	48 c1 e0 02          	shl    $0x2,%rax
    2cad:	48 83 c0 06          	add    $0x6,%rax
    2cb1:	48 0f af c2          	imul   %rdx,%rax
    2cb5:	48 89 45 c8          	mov    %rax,-0x38(%rbp)
    2cb9:	df 6d c8             	fildll -0x38(%rbp)
    2cbc:	48 85 c0             	test   %rax,%rax
    2cbf:	79 08                	jns    2cc9 <_ZN3pix4math4trig3sinEe+0x9b>
    2cc1:	db 2d 59 37 00 00    	fldt   0x3759(%rip)        # 6420 <_ZL9PHASE_MAX+0x220>
    2cc7:	de c1                	faddp  %st,%st(1)
    2cc9:	de f9                	fdivrp %st,%st(1)
    2ccb:	db 6d e0             	fldt   -0x20(%rbp)
    2cce:	de c9                	fmulp  %st,%st(1)
    2cd0:	db 7d e0             	fstpt  -0x20(%rbp)
    2cd3:	ff 75 e8             	push   -0x18(%rbp)
    2cd6:	ff 75 e0             	push   -0x20(%rbp)
    2cd9:	e8 79 12 00 00       	call   3f57 <_ZN3pix4math3absIeEET_S2_>
    2cde:	48 83 c4 10          	add    $0x10,%rsp
    2ce2:	db 2d 28 37 00 00    	fldt   0x3728(%rip)        # 6410 <_ZL9PHASE_MAX+0x210>
    2ce8:	df f1                	fcomip %st(1),%st
    2cea:	dd d8                	fstp   %st(0)
    2cec:	0f 97 c0             	seta   %al
    2cef:	84 c0                	test   %al,%al
    2cf1:	75 1c                	jne    2d0f <_ZN3pix4math4trig3sinEe+0xe1>
    2cf3:	db 6d f0             	fldt   -0x10(%rbp)
    2cf6:	db 6d e0             	fldt   -0x20(%rbp)
    2cf9:	de c1                	faddp  %st,%st(1)
    2cfb:	db 7d f0             	fstpt  -0x10(%rbp)
    2cfe:	48 83 45 d8 01       	addq   $0x1,-0x28(%rbp)
    2d03:	48 81 7d d8 3f 42 0f 	cmpq   $0xf423f,-0x28(%rbp)
    2d0a:	00 
    2d0b:	76 8b                	jbe    2c98 <_ZN3pix4math4trig3sinEe+0x6a>
    2d0d:	eb 01                	jmp    2d10 <_ZN3pix4math4trig3sinEe+0xe2>
    2d0f:	90                   	nop
    2d10:	80 7d d7 00          	cmpb   $0x0,-0x29(%rbp)
    2d14:	74 07                	je     2d1d <_ZN3pix4math4trig3sinEe+0xef>
    2d16:	db 6d f0             	fldt   -0x10(%rbp)
    2d19:	d9 e0                	fchs   
    2d1b:	eb 03                	jmp    2d20 <_ZN3pix4math4trig3sinEe+0xf2>
    2d1d:	db 6d f0             	fldt   -0x10(%rbp)
    2d20:	c9                   	leave  
    2d21:	c3                   	ret    

0000000000002d22 <_ZN3pix4math4trig3cosEe>:
    2d22:	f3 0f 1e fa          	endbr64 
    2d26:	55                   	push   %rbp
    2d27:	48 89 e5             	mov    %rsp,%rbp
    2d2a:	48 83 ec 40          	sub    $0x40,%rsp
    2d2e:	ff 75 18             	push   0x18(%rbp)
    2d31:	ff 75 10             	push   0x10(%rbp)
    2d34:	e8 1e 12 00 00       	call   3f57 <_ZN3pix4math3absIeEET_S2_>
    2d39:	48 83 c4 10          	add    $0x10,%rsp
    2d3d:	db 2d fd 36 00 00    	fldt   0x36fd(%rip)        # 6440 <_ZL9PHASE_MAX+0x240>
    2d43:	48 8d 64 24 f0       	lea    -0x10(%rsp),%rsp
    2d48:	db 3c 24             	fstpt  (%rsp)
    2d4b:	48 8d 64 24 f0       	lea    -0x10(%rsp),%rsp
    2d50:	db 3c 24             	fstpt  (%rsp)
    2d53:	e8 45 12 00 00       	call   3f9d <_ZN3pix4math5f_modIeEET_S2_S2_>
    2d58:	48 83 c4 20          	add    $0x20,%rsp
    2d5c:	db 7d 10             	fstpt  0x10(%rbp)
    2d5f:	d9 e8                	fld1   
    2d61:	db 7d e0             	fstpt  -0x20(%rbp)
    2d64:	d9 e8                	fld1   
    2d66:	db 7d f0             	fstpt  -0x10(%rbp)
    2d69:	db 6d 10             	fldt   0x10(%rbp)
    2d6c:	d8 c8                	fmul   %st(0),%st
    2d6e:	db 7d 10             	fstpt  0x10(%rbp)
    2d71:	48 c7 45 d8 01 00 00 	movq   $0x1,-0x28(%rbp)
    2d78:	00 
    2d79:	eb 64                	jmp    2ddf <_ZN3pix4math4trig3cosEe+0xbd>
    2d7b:	db 6d 10             	fldt   0x10(%rbp)
    2d7e:	d9 e0                	fchs   
    2d80:	48 8b 45 d8          	mov    -0x28(%rbp),%rax
    2d84:	48 c1 e0 02          	shl    $0x2,%rax
    2d88:	48 83 e8 02          	sub    $0x2,%rax
    2d8c:	48 0f af 45 d8       	imul   -0x28(%rbp),%rax
    2d91:	48 89 45 c8          	mov    %rax,-0x38(%rbp)
    2d95:	df 6d c8             	fildll -0x38(%rbp)
    2d98:	48 85 c0             	test   %rax,%rax
    2d9b:	79 08                	jns    2da5 <_ZN3pix4math4trig3cosEe+0x83>
    2d9d:	db 2d 7d 36 00 00    	fldt   0x367d(%rip)        # 6420 <_ZL9PHASE_MAX+0x220>
    2da3:	de c1                	faddp  %st,%st(1)
    2da5:	de f9                	fdivrp %st,%st(1)
    2da7:	db 6d e0             	fldt   -0x20(%rbp)
    2daa:	de c9                	fmulp  %st,%st(1)
    2dac:	db 7d e0             	fstpt  -0x20(%rbp)
    2daf:	ff 75 e8             	push   -0x18(%rbp)
    2db2:	ff 75 e0             	push   -0x20(%rbp)
    2db5:	e8 9d 11 00 00       	call   3f57 <_ZN3pix4math3absIeEET_S2_>
    2dba:	48 83 c4 10          	add    $0x10,%rsp
    2dbe:	db 2d 4c 36 00 00    	fldt   0x364c(%rip)        # 6410 <_ZL9PHASE_MAX+0x210>
    2dc4:	df f1                	fcomip %st(1),%st
    2dc6:	dd d8                	fstp   %st(0)
    2dc8:	0f 97 c0             	seta   %al
    2dcb:	84 c0                	test   %al,%al
    2dcd:	75 1c                	jne    2deb <_ZN3pix4math4trig3cosEe+0xc9>
    2dcf:	db 6d f0             	fldt   -0x10(%rbp)
    2dd2:	db 6d e0             	fldt   -0x20(%rbp)
    2dd5:	de c1                	faddp  %st,%st(1)
    2dd7:	db 7d f0             	fstpt  -0x10(%rbp)
    2dda:	48 83 45 d8 01       	addq   $0x1,-0x28(%rbp)
    2ddf:	48 81 7d d8 40 42 0f 	cmpq   $0xf4240,-0x28(%rbp)
    2de6:	00 
    2de7:	76 92                	jbe    2d7b <_ZN3pix4math4trig3cosEe+0x59>
    2de9:	eb 01                	jmp    2dec <_ZN3pix4math4trig3cosEe+0xca>
    2deb:	90                   	nop
    2dec:	db 6d f0             	fldt   -0x10(%rbp)
    2def:	c9                   	leave  
    2df0:	c3                   	ret    

0000000000002df1 <_ZN3pix4math4trig3tanEe>:
    2df1:	f3 0f 1e fa          	endbr64 
    2df5:	55                   	push   %rbp
    2df6:	48 89 e5             	mov    %rsp,%rbp
    2df9:	48 83 ec 10          	sub    $0x10,%rsp
    2dfd:	ff 75 18             	push   0x18(%rbp)
    2e00:	ff 75 10             	push   0x10(%rbp)
    2e03:	e8 26 fe ff ff       	call   2c2e <_ZN3pix4math4trig3sinEe>
    2e08:	48 83 c4 10          	add    $0x10,%rsp
    2e0c:	db 7d f0             	fstpt  -0x10(%rbp)
    2e0f:	ff 75 18             	push   0x18(%rbp)
    2e12:	ff 75 10             	push   0x10(%rbp)
    2e15:	e8 08 ff ff ff       	call   2d22 <_ZN3pix4math4trig3cosEe>
    2e1a:	48 83 c4 10          	add    $0x10,%rsp
    2e1e:	db 6d f0             	fldt   -0x10(%rbp)
    2e21:	de f1                	fdivp  %st,%st(1)
    2e23:	c9                   	leave  
    2e24:	c3                   	ret    

0000000000002e25 <_ZN3pix4math4trig3secEe>:
    2e25:	f3 0f 1e fa          	endbr64 
    2e29:	55                   	push   %rbp
    2e2a:	48 89 e5             	mov    %rsp,%rbp
    2e2d:	ff 75 18             	push   0x18(%rbp)
    2e30:	ff 75 10             	push   0x10(%rbp)
    2e33:	e8 ea fe ff ff       	call   2d22 <_ZN3pix4math4trig3cosEe>
    2e38:	48 83 c4 10          	add    $0x10,%rsp
    2e3c:	d9 e8                	fld1   
    2e3e:	de f1                	fdivp  %st,%st(1)
    2e40:	c9                   	leave  
    2e41:	c3                   	ret    

0000000000002e42 <_ZN3pix4math4trig3cscEe>:
    2e42:	f3 0f 1e fa          	endbr64 
    2e46:	55                   	push   %rbp
    2e47:	48 89 e5             	mov    %rsp,%rbp
    2e4a:	ff 75 18             	push   0x18(%rbp)
    2e4d:	ff 75 10             	push   0x10(%rbp)
    2e50:	e8 d9 fd ff ff       	call   2c2e <_ZN3pix4math4trig3sinEe>
    2e55:	48 83 c4 10          	add    $0x10,%rsp
    2e59:	d9 e8                	fld1   
    2e5b:	de f1                	fdivp  %st,%st(1)
    2e5d:	c9                   	leave  
    2e5e:	c3                   	ret    

0000000000002e5f <_ZN3pix4math4trig3cotEe>:
    2e5f:	f3 0f 1e fa          	endbr64 
    2e63:	55                   	push   %rbp
    2e64:	48 89 e5             	mov    %rsp,%rbp
    2e67:	48 83 ec 10          	sub    $0x10,%rsp
    2e6b:	ff 75 18             	push   0x18(%rbp)
    2e6e:	ff 75 10             	push   0x10(%rbp)
    2e71:	e8 ac fe ff ff       	call   2d22 <_ZN3pix4math4trig3cosEe>
    2e76:	48 83 c4 10          	add    $0x10,%rsp
    2e7a:	db 7d f0             	fstpt  -0x10(%rbp)
    2e7d:	ff 75 18             	push   0x18(%rbp)
    2e80:	ff 75 10             	push   0x10(%rbp)
    2e83:	e8 a6 fd ff ff       	call   2c2e <_ZN3pix4math4trig3sinEe>
    2e88:	48 83 c4 10          	add    $0x10,%rsp
    2e8c:	db 6d f0             	fldt   -0x10(%rbp)
    2e8f:	de f1                	fdivp  %st,%st(1)
    2e91:	c9                   	leave  
    2e92:	c3                   	ret    

0000000000002e93 <_ZN3pix4math4trig6arcsinEe>:
    2e93:	f3 0f 1e fa          	endbr64 
    2e97:	55                   	push   %rbp
    2e98:	48 89 e5             	mov    %rsp,%rbp
    2e9b:	48 83 ec 40          	sub    $0x40,%rsp
    2e9f:	d9 e8                	fld1   
    2ea1:	d9 e0                	fchs   
    2ea3:	db 6d 10             	fldt   0x10(%rbp)
    2ea6:	d9 c9                	fxch   %st(1)
    2ea8:	df f1                	fcomip %st(1),%st
    2eaa:	dd d8                	fstp   %st(0)
    2eac:	77 0b                	ja     2eb9 <_ZN3pix4math4trig6arcsinEe+0x26>
    2eae:	d9 e8                	fld1   
    2eb0:	db 6d 10             	fldt   0x10(%rbp)
    2eb3:	df f1                	fcomip %st(1),%st
    2eb5:	dd d8                	fstp   %st(0)
    2eb7:	76 2b                	jbe    2ee4 <_ZN3pix4math4trig6arcsinEe+0x51>
    2eb9:	bf 08 00 00 00       	mov    $0x8,%edi
    2ebe:	e8 6d f3 ff ff       	call   2230 <__cxa_allocate_exception@plt>
    2ec3:	48 8d 15 6f 32 00 00 	lea    0x326f(%rip),%rdx        # 6139 <_ZL7STD_NaN+0x79>
    2eca:	48 89 10             	mov    %rdx,(%rax)
    2ecd:	ba 00 00 00 00       	mov    $0x0,%edx
    2ed2:	48 8d 0d e7 5d 00 00 	lea    0x5de7(%rip),%rcx        # 8cc0 <_ZTIPKc@CXXABI_1.3>
    2ed9:	48 89 ce             	mov    %rcx,%rsi
    2edc:	48 89 c7             	mov    %rax,%rdi
    2edf:	e8 2c f4 ff ff       	call   2310 <__cxa_throw@plt>
    2ee4:	db 6d 10             	fldt   0x10(%rbp)
    2ee7:	d9 e8                	fld1   
    2ee9:	d9 e0                	fchs   
    2eeb:	df e9                	fucomip %st(1),%st
    2eed:	dd d8                	fstp   %st(0)
    2eef:	7a 18                	jp     2f09 <_ZN3pix4math4trig6arcsinEe+0x76>
    2ef1:	db 6d 10             	fldt   0x10(%rbp)
    2ef4:	d9 e8                	fld1   
    2ef6:	d9 e0                	fchs   
    2ef8:	df e9                	fucomip %st(1),%st
    2efa:	dd d8                	fstp   %st(0)
    2efc:	75 0b                	jne    2f09 <_ZN3pix4math4trig6arcsinEe+0x76>
    2efe:	db 2d 4c 35 00 00    	fldt   0x354c(%rip)        # 6450 <_ZL9PHASE_MAX+0x250>
    2f04:	e9 52 01 00 00       	jmp    305b <_ZN3pix4math4trig6arcsinEe+0x1c8>
    2f09:	db 6d 10             	fldt   0x10(%rbp)
    2f0c:	d9 e8                	fld1   
    2f0e:	df e9                	fucomip %st(1),%st
    2f10:	dd d8                	fstp   %st(0)
    2f12:	7a 16                	jp     2f2a <_ZN3pix4math4trig6arcsinEe+0x97>
    2f14:	db 6d 10             	fldt   0x10(%rbp)
    2f17:	d9 e8                	fld1   
    2f19:	df e9                	fucomip %st(1),%st
    2f1b:	dd d8                	fstp   %st(0)
    2f1d:	75 0b                	jne    2f2a <_ZN3pix4math4trig6arcsinEe+0x97>
    2f1f:	db 2d 3b 35 00 00    	fldt   0x353b(%rip)        # 6460 <_ZL9PHASE_MAX+0x260>
    2f25:	e9 31 01 00 00       	jmp    305b <_ZN3pix4math4trig6arcsinEe+0x1c8>
    2f2a:	db 6d 10             	fldt   0x10(%rbp)
    2f2d:	d9 ee                	fldz   
    2f2f:	df f1                	fcomip %st(1),%st
    2f31:	dd d8                	fstp   %st(0)
    2f33:	0f 97 c0             	seta   %al
    2f36:	88 45 d7             	mov    %al,-0x29(%rbp)
    2f39:	ff 75 18             	push   0x18(%rbp)
    2f3c:	ff 75 10             	push   0x10(%rbp)
    2f3f:	e8 13 10 00 00       	call   3f57 <_ZN3pix4math3absIeEET_S2_>
    2f44:	48 83 c4 10          	add    $0x10,%rsp
    2f48:	db 7d 10             	fstpt  0x10(%rbp)
    2f4b:	db 6d 10             	fldt   0x10(%rbp)
    2f4e:	db 7d e0             	fstpt  -0x20(%rbp)
    2f51:	db 6d 10             	fldt   0x10(%rbp)
    2f54:	db 7d f0             	fstpt  -0x10(%rbp)
    2f57:	db 6d 10             	fldt   0x10(%rbp)
    2f5a:	d8 c8                	fmul   %st(0),%st
    2f5c:	db 7d 10             	fstpt  0x10(%rbp)
    2f5f:	48 c7 45 d8 00 00 00 	movq   $0x0,-0x28(%rbp)
    2f66:	00 
    2f67:	e9 ce 00 00 00       	jmp    303a <_ZN3pix4math4trig6arcsinEe+0x1a7>
    2f6c:	db 6d 10             	fldt   0x10(%rbp)
    2f6f:	db 2d fb 34 00 00    	fldt   0x34fb(%rip)        # 6470 <_ZL9PHASE_MAX+0x270>
    2f75:	de c9                	fmulp  %st,%st(1)
    2f77:	48 8b 45 d8          	mov    -0x28(%rbp),%rax
    2f7b:	48 83 c0 01          	add    $0x1,%rax
    2f7f:	48 01 c0             	add    %rax,%rax
    2f82:	48 89 45 c8          	mov    %rax,-0x38(%rbp)
    2f86:	df 6d c8             	fildll -0x38(%rbp)
    2f89:	48 85 c0             	test   %rax,%rax
    2f8c:	79 08                	jns    2f96 <_ZN3pix4math4trig6arcsinEe+0x103>
    2f8e:	db 2d 8c 34 00 00    	fldt   0x348c(%rip)        # 6420 <_ZL9PHASE_MAX+0x220>
    2f94:	de c1                	faddp  %st,%st(1)
    2f96:	de c9                	fmulp  %st,%st(1)
    2f98:	48 8b 45 d8          	mov    -0x28(%rbp),%rax
    2f9c:	48 01 c0             	add    %rax,%rax
    2f9f:	48 83 c0 01          	add    $0x1,%rax
    2fa3:	48 89 45 c8          	mov    %rax,-0x38(%rbp)
    2fa7:	df 6d c8             	fildll -0x38(%rbp)
    2faa:	48 85 c0             	test   %rax,%rax
    2fad:	79 08                	jns    2fb7 <_ZN3pix4math4trig6arcsinEe+0x124>
    2faf:	db 2d 6b 34 00 00    	fldt   0x346b(%rip)        # 6420 <_ZL9PHASE_MAX+0x220>
    2fb5:	de c1                	faddp  %st,%st(1)
    2fb7:	de c9                	fmulp  %st,%st(1)
    2fb9:	48 8b 45 d8          	mov    -0x28(%rbp),%rax
    2fbd:	48 01 c0             	add    %rax,%rax
    2fc0:	48 83 c0 01          	add    $0x1,%rax
    2fc4:	48 89 45 c8          	mov    %rax,-0x38(%rbp)
    2fc8:	df 6d c8             	fildll -0x38(%rbp)
    2fcb:	48 85 c0             	test   %rax,%rax
    2fce:	79 08                	jns    2fd8 <_ZN3pix4math4trig6arcsinEe+0x145>
    2fd0:	db 2d 4a 34 00 00    	fldt   0x344a(%rip)        # 6420 <_ZL9PHASE_MAX+0x220>
    2fd6:	de c1                	faddp  %st,%st(1)
    2fd8:	de c9                	fmulp  %st,%st(1)
    2fda:	48 8b 45 d8          	mov    -0x28(%rbp),%rax
    2fde:	48 01 c0             	add    %rax,%rax
    2fe1:	48 8d 50 03          	lea    0x3(%rax),%rdx
    2fe5:	48 8b 45 d8          	mov    -0x28(%rbp),%rax
    2fe9:	48 83 c0 01          	add    $0x1,%rax
    2fed:	48 0f af c2          	imul   %rdx,%rax
    2ff1:	48 8b 55 d8          	mov    -0x28(%rbp),%rdx
    2ff5:	48 83 c2 01          	add    $0x1,%rdx
    2ff9:	48 0f af c2          	imul   %rdx,%rax
    2ffd:	48 89 45 c8          	mov    %rax,-0x38(%rbp)
    3001:	df 6d c8             	fildll -0x38(%rbp)
    3004:	48 85 c0             	test   %rax,%rax
    3007:	79 08                	jns    3011 <_ZN3pix4math4trig6arcsinEe+0x17e>
    3009:	db 2d 11 34 00 00    	fldt   0x3411(%rip)        # 6420 <_ZL9PHASE_MAX+0x220>
    300f:	de c1                	faddp  %st,%st(1)
    3011:	de f9                	fdivrp %st,%st(1)
    3013:	db 6d e0             	fldt   -0x20(%rbp)
    3016:	de c9                	fmulp  %st,%st(1)
    3018:	db 7d e0             	fstpt  -0x20(%rbp)
    301b:	db 6d e0             	fldt   -0x20(%rbp)
    301e:	db 2d ec 33 00 00    	fldt   0x33ec(%rip)        # 6410 <_ZL9PHASE_MAX+0x210>
    3024:	df f1                	fcomip %st(1),%st
    3026:	dd d8                	fstp   %st(0)
    3028:	77 20                	ja     304a <_ZN3pix4math4trig6arcsinEe+0x1b7>
    302a:	db 6d f0             	fldt   -0x10(%rbp)
    302d:	db 6d e0             	fldt   -0x20(%rbp)
    3030:	de c1                	faddp  %st,%st(1)
    3032:	db 7d f0             	fstpt  -0x10(%rbp)
    3035:	48 83 45 d8 01       	addq   $0x1,-0x28(%rbp)
    303a:	48 81 7d d8 3f 42 0f 	cmpq   $0xf423f,-0x28(%rbp)
    3041:	00 
    3042:	0f 86 24 ff ff ff    	jbe    2f6c <_ZN3pix4math4trig6arcsinEe+0xd9>
    3048:	eb 01                	jmp    304b <_ZN3pix4math4trig6arcsinEe+0x1b8>
    304a:	90                   	nop
    304b:	80 7d d7 00          	cmpb   $0x0,-0x29(%rbp)
    304f:	74 07                	je     3058 <_ZN3pix4math4trig6arcsinEe+0x1c5>
    3051:	db 6d f0             	fldt   -0x10(%rbp)
    3054:	d9 e0                	fchs   
    3056:	eb 03                	jmp    305b <_ZN3pix4math4trig6arcsinEe+0x1c8>
    3058:	db 6d f0             	fldt   -0x10(%rbp)
    305b:	c9                   	leave  
    305c:	c3                   	ret    

000000000000305d <_ZN3pix4math4trig6arccosEe>:
    305d:	f3 0f 1e fa          	endbr64 
    3061:	55                   	push   %rbp
    3062:	48 89 e5             	mov    %rsp,%rbp
    3065:	ff 75 18             	push   0x18(%rbp)
    3068:	ff 75 10             	push   0x10(%rbp)
    306b:	e8 23 fe ff ff       	call   2e93 <_ZN3pix4math4trig6arcsinEe>
    3070:	48 83 c4 10          	add    $0x10,%rsp
    3074:	db 2d e6 33 00 00    	fldt   0x33e6(%rip)        # 6460 <_ZL9PHASE_MAX+0x260>
    307a:	de e1                	fsubp  %st,%st(1)
    307c:	c9                   	leave  
    307d:	c3                   	ret    

000000000000307e <_ZN3pix4math4trig6arctanEe>:
    307e:	f3 0f 1e fa          	endbr64 
    3082:	55                   	push   %rbp
    3083:	48 89 e5             	mov    %rsp,%rbp
    3086:	48 83 ec 40          	sub    $0x40,%rsp
    308a:	ff 75 18             	push   0x18(%rbp)
    308d:	ff 75 10             	push   0x10(%rbp)
    3090:	e8 c2 0e 00 00       	call   3f57 <_ZN3pix4math3absIeEET_S2_>
    3095:	48 83 c4 10          	add    $0x10,%rsp
    3099:	d9 e8                	fld1   
    309b:	d9 c9                	fxch   %st(1)
    309d:	df f1                	fcomip %st(1),%st
    309f:	dd d8                	fstp   %st(0)
    30a1:	0f 97 c0             	seta   %al
    30a4:	84 c0                	test   %al,%al
    30a6:	74 25                	je     30cd <_ZN3pix4math4trig6arctanEe+0x4f>
    30a8:	d9 e8                	fld1   
    30aa:	db 6d 10             	fldt   0x10(%rbp)
    30ad:	de f9                	fdivrp %st,%st(1)
    30af:	48 8d 64 24 f0       	lea    -0x10(%rsp),%rsp
    30b4:	db 3c 24             	fstpt  (%rsp)
    30b7:	e8 c2 ff ff ff       	call   307e <_ZN3pix4math4trig6arctanEe>
    30bc:	48 83 c4 10          	add    $0x10,%rsp
    30c0:	db 2d 9a 33 00 00    	fldt   0x339a(%rip)        # 6460 <_ZL9PHASE_MAX+0x260>
    30c6:	de e1                	fsubp  %st,%st(1)
    30c8:	e9 df 00 00 00       	jmp    31ac <_ZN3pix4math4trig6arctanEe+0x12e>
    30cd:	db 6d 10             	fldt   0x10(%rbp)
    30d0:	d9 ee                	fldz   
    30d2:	df f1                	fcomip %st(1),%st
    30d4:	dd d8                	fstp   %st(0)
    30d6:	0f 97 c0             	seta   %al
    30d9:	88 45 d7             	mov    %al,-0x29(%rbp)
    30dc:	ff 75 18             	push   0x18(%rbp)
    30df:	ff 75 10             	push   0x10(%rbp)
    30e2:	e8 70 0e 00 00       	call   3f57 <_ZN3pix4math3absIeEET_S2_>
    30e7:	48 83 c4 10          	add    $0x10,%rsp
    30eb:	db 7d 10             	fstpt  0x10(%rbp)
    30ee:	db 6d 10             	fldt   0x10(%rbp)
    30f1:	db 7d e0             	fstpt  -0x20(%rbp)
    30f4:	db 6d 10             	fldt   0x10(%rbp)
    30f7:	db 7d f0             	fstpt  -0x10(%rbp)
    30fa:	db 6d 10             	fldt   0x10(%rbp)
    30fd:	d8 c8                	fmul   %st(0),%st
    30ff:	db 7d 10             	fstpt  0x10(%rbp)
    3102:	48 c7 45 d8 00 00 00 	movq   $0x0,-0x28(%rbp)
    3109:	00 
    310a:	eb 7f                	jmp    318b <_ZN3pix4math4trig6arctanEe+0x10d>
    310c:	db 6d 10             	fldt   0x10(%rbp)
    310f:	d9 e0                	fchs   
    3111:	48 8b 45 d8          	mov    -0x28(%rbp),%rax
    3115:	48 01 c0             	add    %rax,%rax
    3118:	48 83 c0 01          	add    $0x1,%rax
    311c:	48 89 45 c8          	mov    %rax,-0x38(%rbp)
    3120:	df 6d c8             	fildll -0x38(%rbp)
    3123:	48 85 c0             	test   %rax,%rax
    3126:	79 08                	jns    3130 <_ZN3pix4math4trig6arctanEe+0xb2>
    3128:	db 2d f2 32 00 00    	fldt   0x32f2(%rip)        # 6420 <_ZL9PHASE_MAX+0x220>
    312e:	de c1                	faddp  %st,%st(1)
    3130:	de c9                	fmulp  %st,%st(1)
    3132:	48 8b 45 d8          	mov    -0x28(%rbp),%rax
    3136:	48 01 c0             	add    %rax,%rax
    3139:	48 83 c0 03          	add    $0x3,%rax
    313d:	48 89 45 c8          	mov    %rax,-0x38(%rbp)
    3141:	df 6d c8             	fildll -0x38(%rbp)
    3144:	48 85 c0             	test   %rax,%rax
    3147:	79 08                	jns    3151 <_ZN3pix4math4trig6arctanEe+0xd3>
    3149:	db 2d d1 32 00 00    	fldt   0x32d1(%rip)        # 6420 <_ZL9PHASE_MAX+0x220>
    314f:	de c1                	faddp  %st,%st(1)
    3151:	de f9                	fdivrp %st,%st(1)
    3153:	db 6d e0             	fldt   -0x20(%rbp)
    3156:	de c9                	fmulp  %st,%st(1)
    3158:	db 7d e0             	fstpt  -0x20(%rbp)
    315b:	ff 75 e8             	push   -0x18(%rbp)
    315e:	ff 75 e0             	push   -0x20(%rbp)
    3161:	e8 f1 0d 00 00       	call   3f57 <_ZN3pix4math3absIeEET_S2_>
    3166:	48 83 c4 10          	add    $0x10,%rsp
    316a:	db 2d a0 32 00 00    	fldt   0x32a0(%rip)        # 6410 <_ZL9PHASE_MAX+0x210>
    3170:	df f1                	fcomip %st(1),%st
    3172:	dd d8                	fstp   %st(0)
    3174:	0f 97 c0             	seta   %al
    3177:	84 c0                	test   %al,%al
    3179:	75 20                	jne    319b <_ZN3pix4math4trig6arctanEe+0x11d>
    317b:	db 6d f0             	fldt   -0x10(%rbp)
    317e:	db 6d e0             	fldt   -0x20(%rbp)
    3181:	de c1                	faddp  %st,%st(1)
    3183:	db 7d f0             	fstpt  -0x10(%rbp)
    3186:	48 83 45 d8 01       	addq   $0x1,-0x28(%rbp)
    318b:	48 81 7d d8 3f 42 0f 	cmpq   $0xf423f,-0x28(%rbp)
    3192:	00 
    3193:	0f 86 73 ff ff ff    	jbe    310c <_ZN3pix4math4trig6arctanEe+0x8e>
    3199:	eb 01                	jmp    319c <_ZN3pix4math4trig6arctanEe+0x11e>
    319b:	90                   	nop
    319c:	80 7d d7 00          	cmpb   $0x0,-0x29(%rbp)
    31a0:	74 07                	je     31a9 <_ZN3pix4math4trig6arctanEe+0x12b>
    31a2:	db 6d f0             	fldt   -0x10(%rbp)
    31a5:	d9 e0                	fchs   
    31a7:	eb 03                	jmp    31ac <_ZN3pix4math4trig6arctanEe+0x12e>
    31a9:	db 6d f0             	fldt   -0x10(%rbp)
    31ac:	c9                   	leave  
    31ad:	c3                   	ret    

00000000000031ae <_ZN3pix4math5hyper4sinhEe>:
    31ae:	f3 0f 1e fa          	endbr64 
    31b2:	55                   	push   %rbp
    31b3:	48 89 e5             	mov    %rsp,%rbp
    31b6:	48 83 ec 40          	sub    $0x40,%rsp
    31ba:	db 6d 10             	fldt   0x10(%rbp)
    31bd:	db 7d e0             	fstpt  -0x20(%rbp)
    31c0:	db 6d 10             	fldt   0x10(%rbp)
    31c3:	db 7d f0             	fstpt  -0x10(%rbp)
    31c6:	db 6d 10             	fldt   0x10(%rbp)
    31c9:	d8 c8                	fmul   %st(0),%st
    31cb:	db 7d 10             	fstpt  0x10(%rbp)
    31ce:	48 c7 45 d8 00 00 00 	movq   $0x0,-0x28(%rbp)
    31d5:	00 
    31d6:	eb 69                	jmp    3241 <_ZN3pix4math5hyper4sinhEe+0x93>
    31d8:	48 8b 45 d8          	mov    -0x28(%rbp),%rax
    31dc:	48 8d 50 01          	lea    0x1(%rax),%rdx
    31e0:	48 8b 45 d8          	mov    -0x28(%rbp),%rax
    31e4:	48 c1 e0 02          	shl    $0x2,%rax
    31e8:	48 83 c0 06          	add    $0x6,%rax
    31ec:	48 0f af c2          	imul   %rdx,%rax
    31f0:	48 89 45 c8          	mov    %rax,-0x38(%rbp)
    31f4:	df 6d c8             	fildll -0x38(%rbp)
    31f7:	48 85 c0             	test   %rax,%rax
    31fa:	79 08                	jns    3204 <_ZN3pix4math5hyper4sinhEe+0x56>
    31fc:	db 2d 1e 32 00 00    	fldt   0x321e(%rip)        # 6420 <_ZL9PHASE_MAX+0x220>
    3202:	de c1                	faddp  %st,%st(1)
    3204:	db 6d 10             	fldt   0x10(%rbp)
    3207:	de f1                	fdivp  %st,%st(1)
    3209:	db 6d e0             	fldt   -0x20(%rbp)
    320c:	de c9                	fmulp  %st,%st(1)
    320e:	db 7d e0             	fstpt  -0x20(%rbp)
    3211:	ff 75 e8             	push   -0x18(%rbp)
    3214:	ff 75 e0             	push   -0x20(%rbp)
    3217:	e8 3b 0d 00 00       	call   3f57 <_ZN3pix4math3absIeEET_S2_>
    321c:	48 83 c4 10          	add    $0x10,%rsp
    3220:	db 2d ea 31 00 00    	fldt   0x31ea(%rip)        # 6410 <_ZL9PHASE_MAX+0x210>
    3226:	df f1                	fcomip %st(1),%st
    3228:	dd d8                	fstp   %st(0)
    322a:	0f 97 c0             	seta   %al
    322d:	84 c0                	test   %al,%al
    322f:	75 1c                	jne    324d <_ZN3pix4math5hyper4sinhEe+0x9f>
    3231:	db 6d f0             	fldt   -0x10(%rbp)
    3234:	db 6d e0             	fldt   -0x20(%rbp)
    3237:	de c1                	faddp  %st,%st(1)
    3239:	db 7d f0             	fstpt  -0x10(%rbp)
    323c:	48 83 45 d8 01       	addq   $0x1,-0x28(%rbp)
    3241:	48 81 7d d8 3f 42 0f 	cmpq   $0xf423f,-0x28(%rbp)
    3248:	00 
    3249:	76 8d                	jbe    31d8 <_ZN3pix4math5hyper4sinhEe+0x2a>
    324b:	eb 01                	jmp    324e <_ZN3pix4math5hyper4sinhEe+0xa0>
    324d:	90                   	nop
    324e:	db 6d f0             	fldt   -0x10(%rbp)
    3251:	c9                   	leave  
    3252:	c3                   	ret    

0000000000003253 <_ZN3pix4math5hyper4coshEe>:
    3253:	f3 0f 1e fa          	endbr64 
    3257:	55                   	push   %rbp
    3258:	48 89 e5             	mov    %rsp,%rbp
    325b:	48 83 ec 40          	sub    $0x40,%rsp
    325f:	d9 e8                	fld1   
    3261:	db 7d e0             	fstpt  -0x20(%rbp)
    3264:	d9 e8                	fld1   
    3266:	db 7d f0             	fstpt  -0x10(%rbp)
    3269:	db 6d 10             	fldt   0x10(%rbp)
    326c:	d8 c8                	fmul   %st(0),%st
    326e:	db 7d 10             	fstpt  0x10(%rbp)
    3271:	48 c7 45 d8 00 00 00 	movq   $0x0,-0x28(%rbp)
    3278:	00 
    3279:	eb 69                	jmp    32e4 <_ZN3pix4math5hyper4coshEe+0x91>
    327b:	48 8b 45 d8          	mov    -0x28(%rbp),%rax
    327f:	48 8d 50 01          	lea    0x1(%rax),%rdx
    3283:	48 8b 45 d8          	mov    -0x28(%rbp),%rax
    3287:	48 c1 e0 02          	shl    $0x2,%rax
    328b:	48 83 c0 02          	add    $0x2,%rax
    328f:	48 0f af c2          	imul   %rdx,%rax
    3293:	48 89 45 c8          	mov    %rax,-0x38(%rbp)
    3297:	df 6d c8             	fildll -0x38(%rbp)
    329a:	48 85 c0             	test   %rax,%rax
    329d:	79 08                	jns    32a7 <_ZN3pix4math5hyper4coshEe+0x54>
    329f:	db 2d 7b 31 00 00    	fldt   0x317b(%rip)        # 6420 <_ZL9PHASE_MAX+0x220>
    32a5:	de c1                	faddp  %st,%st(1)
    32a7:	db 6d 10             	fldt   0x10(%rbp)
    32aa:	de f1                	fdivp  %st,%st(1)
    32ac:	db 6d e0             	fldt   -0x20(%rbp)
    32af:	de c9                	fmulp  %st,%st(1)
    32b1:	db 7d e0             	fstpt  -0x20(%rbp)
    32b4:	ff 75 e8             	push   -0x18(%rbp)
    32b7:	ff 75 e0             	push   -0x20(%rbp)
    32ba:	e8 98 0c 00 00       	call   3f57 <_ZN3pix4math3absIeEET_S2_>
    32bf:	48 83 c4 10          	add    $0x10,%rsp
    32c3:	db 2d 47 31 00 00    	fldt   0x3147(%rip)        # 6410 <_ZL9PHASE_MAX+0x210>
    32c9:	df f1                	fcomip %st(1),%st
    32cb:	dd d8                	fstp   %st(0)
    32cd:	0f 97 c0             	seta   %al
    32d0:	84 c0                	test   %al,%al
    32d2:	75 1c                	jne    32f0 <_ZN3pix4math5hyper4coshEe+0x9d>
    32d4:	db 6d f0             	fldt   -0x10(%rbp)
    32d7:	db 6d e0             	fldt   -0x20(%rbp)
    32da:	de c1                	faddp  %st,%st(1)
    32dc:	db 7d f0             	fstpt  -0x10(%rbp)
    32df:	48 83 45 d8 01       	addq   $0x1,-0x28(%rbp)
    32e4:	48 81 7d d8 3f 42 0f 	cmpq   $0xf423f,-0x28(%rbp)
    32eb:	00 
    32ec:	76 8d                	jbe    327b <_ZN3pix4math5hyper4coshEe+0x28>
    32ee:	eb 01                	jmp    32f1 <_ZN3pix4math5hyper4coshEe+0x9e>
    32f0:	90                   	nop
    32f1:	db 6d f0             	fldt   -0x10(%rbp)
    32f4:	c9                   	leave  
    32f5:	c3                   	ret    

00000000000032f6 <_ZN3pix4math5hyper4tanhEe>:
    32f6:	f3 0f 1e fa          	endbr64 
    32fa:	55                   	push   %rbp
    32fb:	48 89 e5             	mov    %rsp,%rbp
    32fe:	48 83 ec 10          	sub    $0x10,%rsp
    3302:	ff 75 18             	push   0x18(%rbp)
    3305:	ff 75 10             	push   0x10(%rbp)
    3308:	e8 a1 fe ff ff       	call   31ae <_ZN3pix4math5hyper4sinhEe>
    330d:	48 83 c4 10          	add    $0x10,%rsp
    3311:	db 7d f0             	fstpt  -0x10(%rbp)
    3314:	ff 75 18             	push   0x18(%rbp)
    3317:	ff 75 10             	push   0x10(%rbp)
    331a:	e8 34 ff ff ff       	call   3253 <_ZN3pix4math5hyper4coshEe>
    331f:	48 83 c4 10          	add    $0x10,%rsp
    3323:	db 6d f0             	fldt   -0x10(%rbp)
    3326:	de f1                	fdivp  %st,%st(1)
    3328:	c9                   	leave  
    3329:	c3                   	ret    

000000000000332a <_ZN3pix4math5hyper4sechEe>:
    332a:	f3 0f 1e fa          	endbr64 
    332e:	55                   	push   %rbp
    332f:	48 89 e5             	mov    %rsp,%rbp
    3332:	ff 75 18             	push   0x18(%rbp)
    3335:	ff 75 10             	push   0x10(%rbp)
    3338:	e8 16 ff ff ff       	call   3253 <_ZN3pix4math5hyper4coshEe>
    333d:	48 83 c4 10          	add    $0x10,%rsp
    3341:	d9 e8                	fld1   
    3343:	de f1                	fdivp  %st,%st(1)
    3345:	c9                   	leave  
    3346:	c3                   	ret    

0000000000003347 <_ZN3pix4math5hyper4cschEe>:
    3347:	f3 0f 1e fa          	endbr64 
    334b:	55                   	push   %rbp
    334c:	48 89 e5             	mov    %rsp,%rbp
    334f:	ff 75 18             	push   0x18(%rbp)
    3352:	ff 75 10             	push   0x10(%rbp)
    3355:	e8 d0 ff ff ff       	call   332a <_ZN3pix4math5hyper4sechEe>
    335a:	48 83 c4 10          	add    $0x10,%rsp
    335e:	d9 e8                	fld1   
    3360:	de f1                	fdivp  %st,%st(1)
    3362:	c9                   	leave  
    3363:	c3                   	ret    

0000000000003364 <_ZN3pix4math5hyper4cothEe>:
    3364:	f3 0f 1e fa          	endbr64 
    3368:	55                   	push   %rbp
    3369:	48 89 e5             	mov    %rsp,%rbp
    336c:	48 83 ec 10          	sub    $0x10,%rsp
    3370:	ff 75 18             	push   0x18(%rbp)
    3373:	ff 75 10             	push   0x10(%rbp)
    3376:	e8 d8 fe ff ff       	call   3253 <_ZN3pix4math5hyper4coshEe>
    337b:	48 83 c4 10          	add    $0x10,%rsp
    337f:	db 7d f0             	fstpt  -0x10(%rbp)
    3382:	ff 75 18             	push   0x18(%rbp)
    3385:	ff 75 10             	push   0x10(%rbp)
    3388:	e8 21 fe ff ff       	call   31ae <_ZN3pix4math5hyper4sinhEe>
    338d:	48 83 c4 10          	add    $0x10,%rsp
    3391:	db 6d f0             	fldt   -0x10(%rbp)
    3394:	de f1                	fdivp  %st,%st(1)
    3396:	c9                   	leave  
    3397:	c3                   	ret    

0000000000003398 <_ZN3pix8graphics3rgbaSERKS1_>:
    3398:	f3 0f 1e fa          	endbr64 
    339c:	55                   	push   %rbp
    339d:	48 89 e5             	mov    %rsp,%rbp
    33a0:	48 89 7d f8          	mov    %rdi,-0x8(%rbp)
    33a4:	48 89 75 f0          	mov    %rsi,-0x10(%rbp)
    33a8:	48 8b 45 f0          	mov    -0x10(%rbp),%rax
    33ac:	8b 10                	mov    (%rax),%edx
    33ae:	48 8b 45 f8          	mov    -0x8(%rbp),%rax
    33b2:	89 10                	mov    %edx,(%rax)
    33b4:	48 8b 45 f0          	mov    -0x10(%rbp),%rax
    33b8:	8b 50 04             	mov    0x4(%rax),%edx
    33bb:	48 8b 45 f8          	mov    -0x8(%rbp),%rax
    33bf:	89 50 04             	mov    %edx,0x4(%rax)
    33c2:	48 8b 45 f0          	mov    -0x10(%rbp),%rax
    33c6:	8b 50 08             	mov    0x8(%rax),%edx
    33c9:	48 8b 45 f8          	mov    -0x8(%rbp),%rax
    33cd:	89 50 08             	mov    %edx,0x8(%rax)
    33d0:	90                   	nop
    33d1:	5d                   	pop    %rbp
    33d2:	c3                   	ret    
    33d3:	90                   	nop

00000000000033d4 <_ZNK3pix8graphics3rgbeqERKS1_>:
    33d4:	f3 0f 1e fa          	endbr64 
    33d8:	55                   	push   %rbp
    33d9:	48 89 e5             	mov    %rsp,%rbp
    33dc:	48 89 7d f8          	mov    %rdi,-0x8(%rbp)
    33e0:	48 89 75 f0          	mov    %rsi,-0x10(%rbp)
    33e4:	48 8b 45 f8          	mov    -0x8(%rbp),%rax
    33e8:	8b 10                	mov    (%rax),%edx
    33ea:	48 8b 45 f0          	mov    -0x10(%rbp),%rax
    33ee:	8b 00                	mov    (%rax),%eax
    33f0:	39 c2                	cmp    %eax,%edx
    33f2:	75 2b                	jne    341f <_ZNK3pix8graphics3rgbeqERKS1_+0x4b>
    33f4:	48 8b 45 f8          	mov    -0x8(%rbp),%rax
    33f8:	8b 50 04             	mov    0x4(%rax),%edx
    33fb:	48 8b 45 f0          	mov    -0x10(%rbp),%rax
    33ff:	8b 40 04             	mov    0x4(%rax),%eax
    3402:	39 c2                	cmp    %eax,%edx
    3404:	75 19                	jne    341f <_ZNK3pix8graphics3rgbeqERKS1_+0x4b>
    3406:	48 8b 45 f8          	mov    -0x8(%rbp),%rax
    340a:	8b 50 08             	mov    0x8(%rax),%edx
    340d:	48 8b 45 f0          	mov    -0x10(%rbp),%rax
    3411:	8b 40 08             	mov    0x8(%rax),%eax
    3414:	39 c2                	cmp    %eax,%edx
    3416:	75 07                	jne    341f <_ZNK3pix8graphics3rgbeqERKS1_+0x4b>
    3418:	b8 01 00 00 00       	mov    $0x1,%eax
    341d:	eb 05                	jmp    3424 <_ZNK3pix8graphics3rgbeqERKS1_+0x50>
    341f:	b8 00 00 00 00       	mov    $0x0,%eax
    3424:	5d                   	pop    %rbp
    3425:	c3                   	ret    

0000000000003426 <_ZNK3pix8graphics3rgbneERKS1_>:
    3426:	f3 0f 1e fa          	endbr64 
    342a:	55                   	push   %rbp
    342b:	48 89 e5             	mov    %rsp,%rbp
    342e:	48 89 7d f8          	mov    %rdi,-0x8(%rbp)
    3432:	48 89 75 f0          	mov    %rsi,-0x10(%rbp)
    3436:	48 8b 45 f8          	mov    -0x8(%rbp),%rax
    343a:	8b 10                	mov    (%rax),%edx
    343c:	48 8b 45 f0          	mov    -0x10(%rbp),%rax
    3440:	8b 00                	mov    (%rax),%eax
    3442:	39 c2                	cmp    %eax,%edx
    3444:	75 24                	jne    346a <_ZNK3pix8graphics3rgbneERKS1_+0x44>
    3446:	48 8b 45 f8          	mov    -0x8(%rbp),%rax
    344a:	8b 50 04             	mov    0x4(%rax),%edx
    344d:	48 8b 45 f0          	mov    -0x10(%rbp),%rax
    3451:	8b 40 04             	mov    0x4(%rax),%eax
    3454:	39 c2                	cmp    %eax,%edx
    3456:	75 12                	jne    346a <_ZNK3pix8graphics3rgbneERKS1_+0x44>
    3458:	48 8b 45 f8          	mov    -0x8(%rbp),%rax
    345c:	8b 50 08             	mov    0x8(%rax),%edx
    345f:	48 8b 45 f0          	mov    -0x10(%rbp),%rax
    3463:	8b 40 08             	mov    0x8(%rax),%eax
    3466:	39 c2                	cmp    %eax,%edx
    3468:	74 07                	je     3471 <_ZNK3pix8graphics3rgbneERKS1_+0x4b>
    346a:	b8 01 00 00 00       	mov    $0x1,%eax
    346f:	eb 05                	jmp    3476 <_ZNK3pix8graphics3rgbneERKS1_+0x50>
    3471:	b8 00 00 00 00       	mov    $0x0,%eax
    3476:	5d                   	pop    %rbp
    3477:	c3                   	ret    

0000000000003478 <main>:
    3478:	f3 0f 1e fa          	endbr64 
    347c:	55                   	push   %rbp
    347d:	48 89 e5             	mov    %rsp,%rbp
    3480:	53                   	push   %rbx
    3481:	4c 8d 9c 24 00 10 ff 	lea    -0xf000(%rsp),%r11
    3488:	ff 
    3489:	48 81 ec 00 10 00 00 	sub    $0x1000,%rsp
    3490:	48 83 0c 24 00       	orq    $0x0,(%rsp)
    3495:	4c 39 dc             	cmp    %r11,%rsp
    3498:	75 ef                	jne    3489 <main+0x11>
    349a:	48 81 ec b8 0c 00 00 	sub    $0xcb8,%rsp
    34a1:	89 bd 4c 03 ff ff    	mov    %edi,-0xfcb4(%rbp)
    34a7:	48 89 b5 40 03 ff ff 	mov    %rsi,-0xfcc0(%rbp)
    34ae:	64 48 8b 04 25 28 00 	mov    %fs:0x28,%rax
    34b5:	00 00 
    34b7:	48 89 45 e8          	mov    %rax,-0x18(%rbp)
    34bb:	31 c0                	xor    %eax,%eax
    34bd:	48 8d 05 4c 2d 00 00 	lea    0x2d4c(%rip),%rax        # 6210 <_ZL9PHASE_MAX+0x10>
    34c4:	48 89 c6             	mov    %rax,%rsi
    34c7:	48 8d 05 72 5b 00 00 	lea    0x5b72(%rip),%rax        # 9040 <_ZSt4cout@GLIBCXX_3.4>
    34ce:	48 89 c7             	mov    %rax,%rdi
    34d1:	e8 8a ed ff ff       	call   2260 <_ZStlsISt11char_traitsIcEERSt13basic_ostreamIcT_ES5_PKc@plt>
    34d6:	48 89 c2             	mov    %rax,%rdx
    34d9:	48 8d 05 3e 2d 00 00 	lea    0x2d3e(%rip),%rax        # 621e <_ZL9PHASE_MAX+0x1e>
    34e0:	48 89 c6             	mov    %rax,%rsi
    34e3:	48 89 d7             	mov    %rdx,%rdi
    34e6:	e8 75 ed ff ff       	call   2260 <_ZStlsISt11char_traitsIcEERSt13basic_ostreamIcT_ES5_PKc@plt>
    34eb:	d9 ee                	fldz   
    34ed:	48 8d 64 24 f0       	lea    -0x10(%rsp),%rsp
    34f2:	db 3c 24             	fstpt  (%rsp)
    34f5:	48 89 c7             	mov    %rax,%rdi
    34f8:	e8 83 ed ff ff       	call   2280 <_ZNSolsEe@plt>
    34fd:	48 83 c4 10          	add    $0x10,%rsp
    3501:	48 89 c2             	mov    %rax,%rdx
    3504:	48 8d 05 1d 2d 00 00 	lea    0x2d1d(%rip),%rax        # 6228 <_ZL9PHASE_MAX+0x28>
    350b:	48 89 c6             	mov    %rax,%rsi
    350e:	48 89 d7             	mov    %rdx,%rdi
    3511:	e8 4a ed ff ff       	call   2260 <_ZStlsISt11char_traitsIcEERSt13basic_ostreamIcT_ES5_PKc@plt>
    3516:	db 2d 24 2f 00 00    	fldt   0x2f24(%rip)        # 6440 <_ZL9PHASE_MAX+0x240>
    351c:	48 8d 64 24 f0       	lea    -0x10(%rsp),%rsp
    3521:	db 3c 24             	fstpt  (%rsp)
    3524:	48 89 c7             	mov    %rax,%rdi
    3527:	e8 54 ed ff ff       	call   2280 <_ZNSolsEe@plt>
    352c:	48 83 c4 10          	add    $0x10,%rsp
    3530:	48 89 c2             	mov    %rax,%rdx
    3533:	48 8d 05 f1 2c 00 00 	lea    0x2cf1(%rip),%rax        # 622b <_ZL9PHASE_MAX+0x2b>
    353a:	48 89 c6             	mov    %rax,%rsi
    353d:	48 89 d7             	mov    %rdx,%rdi
    3540:	e8 1b ed ff ff       	call   2260 <_ZStlsISt11char_traitsIcEERSt13basic_ostreamIcT_ES5_PKc@plt>
    3545:	48 89 c2             	mov    %rax,%rdx
    3548:	48 8d 05 df 2c 00 00 	lea    0x2cdf(%rip),%rax        # 622e <_ZL9PHASE_MAX+0x2e>
    354f:	48 89 c6             	mov    %rax,%rsi
    3552:	48 89 d7             	mov    %rdx,%rdi
    3555:	e8 06 ed ff ff       	call   2260 <_ZStlsISt11char_traitsIcEERSt13basic_ostreamIcT_ES5_PKc@plt>
    355a:	d9 ee                	fldz   
    355c:	48 8d 64 24 f0       	lea    -0x10(%rsp),%rsp
    3561:	db 3c 24             	fstpt  (%rsp)
    3564:	48 89 c7             	mov    %rax,%rdi
    3567:	e8 14 ed ff ff       	call   2280 <_ZNSolsEe@plt>
    356c:	48 83 c4 10          	add    $0x10,%rsp
    3570:	48 89 c2             	mov    %rax,%rdx
    3573:	48 8d 05 ae 2c 00 00 	lea    0x2cae(%rip),%rax        # 6228 <_ZL9PHASE_MAX+0x28>
    357a:	48 89 c6             	mov    %rax,%rsi
    357d:	48 89 d7             	mov    %rdx,%rdi
    3580:	e8 db ec ff ff       	call   2260 <_ZStlsISt11char_traitsIcEERSt13basic_ostreamIcT_ES5_PKc@plt>
    3585:	db 2d f5 2e 00 00    	fldt   0x2ef5(%rip)        # 6480 <_ZL9PHASE_MAX+0x280>
    358b:	48 8d 64 24 f0       	lea    -0x10(%rsp),%rsp
    3590:	db 3c 24             	fstpt  (%rsp)
    3593:	48 89 c7             	mov    %rax,%rdi
    3596:	e8 e5 ec ff ff       	call   2280 <_ZNSolsEe@plt>
    359b:	48 83 c4 10          	add    $0x10,%rsp
    359f:	48 89 c2             	mov    %rax,%rdx
    35a2:	48 8d 05 82 2c 00 00 	lea    0x2c82(%rip),%rax        # 622b <_ZL9PHASE_MAX+0x2b>
    35a9:	48 89 c6             	mov    %rax,%rsi
    35ac:	48 89 d7             	mov    %rdx,%rdi
    35af:	e8 ac ec ff ff       	call   2260 <_ZStlsISt11char_traitsIcEERSt13basic_ostreamIcT_ES5_PKc@plt>
    35b4:	48 89 c2             	mov    %rax,%rdx
    35b7:	48 8d 05 7f 2c 00 00 	lea    0x2c7f(%rip),%rax        # 623d <_ZL9PHASE_MAX+0x3d>
    35be:	48 89 c6             	mov    %rax,%rsi
    35c1:	48 89 d7             	mov    %rdx,%rdi
    35c4:	e8 97 ec ff ff       	call   2260 <_ZStlsISt11char_traitsIcEERSt13basic_ostreamIcT_ES5_PKc@plt>
    35c9:	db 2d c1 2e 00 00    	fldt   0x2ec1(%rip)        # 6490 <_ZL9PHASE_MAX+0x290>
    35cf:	48 8d 64 24 f0       	lea    -0x10(%rsp),%rsp
    35d4:	db 3c 24             	fstpt  (%rsp)
    35d7:	48 89 c7             	mov    %rax,%rdi
    35da:	e8 a1 ec ff ff       	call   2280 <_ZNSolsEe@plt>
    35df:	48 83 c4 10          	add    $0x10,%rsp
    35e3:	48 89 c2             	mov    %rax,%rdx
    35e6:	48 8d 05 3b 2c 00 00 	lea    0x2c3b(%rip),%rax        # 6228 <_ZL9PHASE_MAX+0x28>
    35ed:	48 89 c6             	mov    %rax,%rsi
    35f0:	48 89 d7             	mov    %rdx,%rdi
    35f3:	e8 68 ec ff ff       	call   2260 <_ZStlsISt11char_traitsIcEERSt13basic_ostreamIcT_ES5_PKc@plt>
    35f8:	db 2d a2 2e 00 00    	fldt   0x2ea2(%rip)        # 64a0 <_ZL9PHASE_MAX+0x2a0>
    35fe:	48 8d 64 24 f0       	lea    -0x10(%rsp),%rsp
    3603:	db 3c 24             	fstpt  (%rsp)
    3606:	48 89 c7             	mov    %rax,%rdi
    3609:	e8 72 ec ff ff       	call   2280 <_ZNSolsEe@plt>
    360e:	48 83 c4 10          	add    $0x10,%rsp
    3612:	48 89 c2             	mov    %rax,%rdx
    3615:	48 8d 05 0f 2c 00 00 	lea    0x2c0f(%rip),%rax        # 622b <_ZL9PHASE_MAX+0x2b>
    361c:	48 89 c6             	mov    %rax,%rsi
    361f:	48 89 d7             	mov    %rdx,%rdi
    3622:	e8 39 ec ff ff       	call   2260 <_ZStlsISt11char_traitsIcEERSt13basic_ostreamIcT_ES5_PKc@plt>
    3627:	48 89 c2             	mov    %rax,%rdx
    362a:	48 8d 05 18 2c 00 00 	lea    0x2c18(%rip),%rax        # 6249 <_ZL9PHASE_MAX+0x49>
    3631:	48 89 c6             	mov    %rax,%rsi
    3634:	48 89 d7             	mov    %rdx,%rdi
    3637:	e8 24 ec ff ff       	call   2260 <_ZStlsISt11char_traitsIcEERSt13basic_ostreamIcT_ES5_PKc@plt>
    363c:	d9 e8                	fld1   
    363e:	48 8d 64 24 f0       	lea    -0x10(%rsp),%rsp
    3643:	db 3c 24             	fstpt  (%rsp)
    3646:	48 89 c7             	mov    %rax,%rdi
    3649:	e8 32 ec ff ff       	call   2280 <_ZNSolsEe@plt>
    364e:	48 83 c4 10          	add    $0x10,%rsp
    3652:	48 89 c2             	mov    %rax,%rdx
    3655:	48 8d 05 cc 2b 00 00 	lea    0x2bcc(%rip),%rax        # 6228 <_ZL9PHASE_MAX+0x28>
    365c:	48 89 c6             	mov    %rax,%rsi
    365f:	48 89 d7             	mov    %rdx,%rdi
    3662:	e8 f9 eb ff ff       	call   2260 <_ZStlsISt11char_traitsIcEERSt13basic_ostreamIcT_ES5_PKc@plt>
    3667:	db 2d 43 2e 00 00    	fldt   0x2e43(%rip)        # 64b0 <_ZL9PHASE_MAX+0x2b0>
    366d:	48 8d 64 24 f0       	lea    -0x10(%rsp),%rsp
    3672:	db 3c 24             	fstpt  (%rsp)
    3675:	48 89 c7             	mov    %rax,%rdi
    3678:	e8 03 ec ff ff       	call   2280 <_ZNSolsEe@plt>
    367d:	48 83 c4 10          	add    $0x10,%rsp
    3681:	48 89 c2             	mov    %rax,%rdx
    3684:	48 8d 05 a0 2b 00 00 	lea    0x2ba0(%rip),%rax        # 622b <_ZL9PHASE_MAX+0x2b>
    368b:	48 89 c6             	mov    %rax,%rsi
    368e:	48 89 d7             	mov    %rdx,%rdi
    3691:	e8 ca eb ff ff       	call   2260 <_ZStlsISt11char_traitsIcEERSt13basic_ostreamIcT_ES5_PKc@plt>
    3696:	48 89 c2             	mov    %rax,%rdx
    3699:	48 8d 05 b8 2b 00 00 	lea    0x2bb8(%rip),%rax        # 6258 <_ZL9PHASE_MAX+0x58>
    36a0:	48 89 c6             	mov    %rax,%rsi
    36a3:	48 89 d7             	mov    %rdx,%rdi
    36a6:	e8 b5 eb ff ff       	call   2260 <_ZStlsISt11char_traitsIcEERSt13basic_ostreamIcT_ES5_PKc@plt>
    36ab:	db 2d 0f 2e 00 00    	fldt   0x2e0f(%rip)        # 64c0 <_ZL9PHASE_MAX+0x2c0>
    36b1:	48 8d 64 24 f0       	lea    -0x10(%rsp),%rsp
    36b6:	db 3c 24             	fstpt  (%rsp)
    36b9:	48 89 c7             	mov    %rax,%rdi
    36bc:	e8 bf eb ff ff       	call   2280 <_ZNSolsEe@plt>
    36c1:	48 83 c4 10          	add    $0x10,%rsp
    36c5:	48 89 c2             	mov    %rax,%rdx
    36c8:	48 8d 05 59 2b 00 00 	lea    0x2b59(%rip),%rax        # 6228 <_ZL9PHASE_MAX+0x28>
    36cf:	48 89 c6             	mov    %rax,%rsi
    36d2:	48 89 d7             	mov    %rdx,%rdi
    36d5:	e8 86 eb ff ff       	call   2260 <_ZStlsISt11char_traitsIcEERSt13basic_ostreamIcT_ES5_PKc@plt>
    36da:	db 2d f0 2d 00 00    	fldt   0x2df0(%rip)        # 64d0 <_ZL9PHASE_MAX+0x2d0>
    36e0:	48 8d 64 24 f0       	lea    -0x10(%rsp),%rsp
    36e5:	db 3c 24             	fstpt  (%rsp)
    36e8:	48 89 c7             	mov    %rax,%rdi
    36eb:	e8 90 eb ff ff       	call   2280 <_ZNSolsEe@plt>
    36f0:	48 83 c4 10          	add    $0x10,%rsp
    36f4:	48 89 c2             	mov    %rax,%rdx
    36f7:	48 8d 05 65 2b 00 00 	lea    0x2b65(%rip),%rax        # 6263 <_ZL9PHASE_MAX+0x63>
    36fe:	48 89 c6             	mov    %rax,%rsi
    3701:	48 89 d7             	mov    %rdx,%rdi
    3704:	e8 57 eb ff ff       	call   2260 <_ZStlsISt11char_traitsIcEERSt13basic_ostreamIcT_ES5_PKc@plt>
    3709:	db 2d 71 2d 00 00    	fldt   0x2d71(%rip)        # 6480 <_ZL9PHASE_MAX+0x280>
    370f:	48 8d 64 24 f0       	lea    -0x10(%rsp),%rsp
    3714:	db 3c 24             	fstpt  (%rsp)
    3717:	d9 ee                	fldz   
    3719:	48 8d 64 24 f0       	lea    -0x10(%rsp),%rsp
    371e:	db 3c 24             	fstpt  (%rsp)
    3721:	e8 1a 09 00 00       	call   4040 <_ZN3pix6random5drandIeEET_S2_S2_>
    3726:	48 83 c4 20          	add    $0x20,%rsp
    372a:	db bd 80 03 ff ff    	fstpt  -0xfc80(%rbp)
    3730:	db 2d 6a 2d 00 00    	fldt   0x2d6a(%rip)        # 64a0 <_ZL9PHASE_MAX+0x2a0>
    3736:	48 8d 64 24 f0       	lea    -0x10(%rsp),%rsp
    373b:	db 3c 24             	fstpt  (%rsp)
    373e:	db 2d 4c 2d 00 00    	fldt   0x2d4c(%rip)        # 6490 <_ZL9PHASE_MAX+0x290>
    3744:	48 8d 64 24 f0       	lea    -0x10(%rsp),%rsp
    3749:	db 3c 24             	fstpt  (%rsp)
    374c:	e8 ef 08 00 00       	call   4040 <_ZN3pix6random5drandIeEET_S2_S2_>
    3751:	48 83 c4 20          	add    $0x20,%rsp
    3755:	db bd 90 03 ff ff    	fstpt  -0xfc70(%rbp)
    375b:	db 2d 4f 2d 00 00    	fldt   0x2d4f(%rip)        # 64b0 <_ZL9PHASE_MAX+0x2b0>
    3761:	48 8d 64 24 f0       	lea    -0x10(%rsp),%rsp
    3766:	db 3c 24             	fstpt  (%rsp)
    3769:	d9 e8                	fld1   
    376b:	48 8d 64 24 f0       	lea    -0x10(%rsp),%rsp
    3770:	db 3c 24             	fstpt  (%rsp)
    3773:	e8 c8 08 00 00       	call   4040 <_ZN3pix6random5drandIeEET_S2_S2_>
    3778:	48 83 c4 20          	add    $0x20,%rsp
    377c:	db bd a0 03 ff ff    	fstpt  -0xfc60(%rbp)
    3782:	db 2d 48 2d 00 00    	fldt   0x2d48(%rip)        # 64d0 <_ZL9PHASE_MAX+0x2d0>
    3788:	48 8d 64 24 f0       	lea    -0x10(%rsp),%rsp
    378d:	db 3c 24             	fstpt  (%rsp)
    3790:	db 2d 2a 2d 00 00    	fldt   0x2d2a(%rip)        # 64c0 <_ZL9PHASE_MAX+0x2c0>
    3796:	48 8d 64 24 f0       	lea    -0x10(%rsp),%rsp
    379b:	db 3c 24             	fstpt  (%rsp)
    379e:	e8 9d 08 00 00       	call   4040 <_ZN3pix6random5drandIeEET_S2_S2_>
    37a3:	48 83 c4 20          	add    $0x20,%rsp
    37a7:	db bd b0 03 ff ff    	fstpt  -0xfc50(%rbp)
    37ad:	48 8d 05 b3 2a 00 00 	lea    0x2ab3(%rip),%rax        # 6267 <_ZL9PHASE_MAX+0x67>
    37b4:	48 89 c6             	mov    %rax,%rsi
    37b7:	48 8d 05 82 58 00 00 	lea    0x5882(%rip),%rax        # 9040 <_ZSt4cout@GLIBCXX_3.4>
    37be:	48 89 c7             	mov    %rax,%rdi
    37c1:	e8 9a ea ff ff       	call   2260 <_ZStlsISt11char_traitsIcEERSt13basic_ostreamIcT_ES5_PKc@plt>
    37c6:	48 89 c2             	mov    %rax,%rdx
    37c9:	48 8d 05 a4 2a 00 00 	lea    0x2aa4(%rip),%rax        # 6274 <_ZL9PHASE_MAX+0x74>
    37d0:	48 89 c6             	mov    %rax,%rsi
    37d3:	48 89 d7             	mov    %rdx,%rdi
    37d6:	e8 85 ea ff ff       	call   2260 <_ZStlsISt11char_traitsIcEERSt13basic_ostreamIcT_ES5_PKc@plt>
    37db:	ff b5 88 03 ff ff    	push   -0xfc78(%rbp)
    37e1:	ff b5 80 03 ff ff    	push   -0xfc80(%rbp)
    37e7:	48 89 c7             	mov    %rax,%rdi
    37ea:	e8 91 ea ff ff       	call   2280 <_ZNSolsEe@plt>
    37ef:	48 83 c4 10          	add    $0x10,%rsp
    37f3:	48 89 c2             	mov    %rax,%rdx
    37f6:	48 8d 05 85 2a 00 00 	lea    0x2a85(%rip),%rax        # 6282 <_ZL9PHASE_MAX+0x82>
    37fd:	48 89 c6             	mov    %rax,%rsi
    3800:	48 89 d7             	mov    %rdx,%rdi
    3803:	e8 58 ea ff ff       	call   2260 <_ZStlsISt11char_traitsIcEERSt13basic_ostreamIcT_ES5_PKc@plt>
    3808:	ff b5 98 03 ff ff    	push   -0xfc68(%rbp)
    380e:	ff b5 90 03 ff ff    	push   -0xfc70(%rbp)
    3814:	48 89 c7             	mov    %rax,%rdi
    3817:	e8 64 ea ff ff       	call   2280 <_ZNSolsEe@plt>
    381c:	48 83 c4 10          	add    $0x10,%rsp
    3820:	48 89 c2             	mov    %rax,%rdx
    3823:	48 8d 05 64 2a 00 00 	lea    0x2a64(%rip),%rax        # 628e <_ZL9PHASE_MAX+0x8e>
    382a:	48 89 c6             	mov    %rax,%rsi
    382d:	48 89 d7             	mov    %rdx,%rdi
    3830:	e8 2b ea ff ff       	call   2260 <_ZStlsISt11char_traitsIcEERSt13basic_ostreamIcT_ES5_PKc@plt>
    3835:	ff b5 a8 03 ff ff    	push   -0xfc58(%rbp)
    383b:	ff b5 a0 03 ff ff    	push   -0xfc60(%rbp)
    3841:	48 89 c7             	mov    %rax,%rdi
    3844:	e8 37 ea ff ff       	call   2280 <_ZNSolsEe@plt>
    3849:	48 83 c4 10          	add    $0x10,%rsp
    384d:	48 89 c2             	mov    %rax,%rdx
    3850:	48 8d 05 41 2a 00 00 	lea    0x2a41(%rip),%rax        # 6298 <_ZL9PHASE_MAX+0x98>
    3857:	48 89 c6             	mov    %rax,%rsi
    385a:	48 89 d7             	mov    %rdx,%rdi
    385d:	e8 fe e9 ff ff       	call   2260 <_ZStlsISt11char_traitsIcEERSt13basic_ostreamIcT_ES5_PKc@plt>
    3862:	ff b5 b8 03 ff ff    	push   -0xfc48(%rbp)
    3868:	ff b5 b0 03 ff ff    	push   -0xfc50(%rbp)
    386e:	48 89 c7             	mov    %rax,%rdi
    3871:	e8 0a ea ff ff       	call   2280 <_ZNSolsEe@plt>
    3876:	48 83 c4 10          	add    $0x10,%rsp
    387a:	48 89 c2             	mov    %rax,%rdx
    387d:	48 8d 05 1f 2a 00 00 	lea    0x2a1f(%rip),%rax        # 62a3 <_ZL9PHASE_MAX+0xa3>
    3884:	48 89 c6             	mov    %rax,%rsi
    3887:	48 89 d7             	mov    %rdx,%rdi
    388a:	e8 d1 e9 ff ff       	call   2260 <_ZStlsISt11char_traitsIcEERSt13basic_ostreamIcT_ES5_PKc@plt>
    388f:	48 c7 85 58 03 ff ff 	movq   $0x0,-0xfca8(%rbp)
    3896:	00 00 00 00 
    389a:	eb 43                	jmp    38df <main+0x467>
    389c:	db 2d 9e 2b 00 00    	fldt   0x2b9e(%rip)        # 6440 <_ZL9PHASE_MAX+0x240>
    38a2:	48 8d 64 24 f0       	lea    -0x10(%rsp),%rsp
    38a7:	db 3c 24             	fstpt  (%rsp)
    38aa:	d9 ee                	fldz   
    38ac:	48 8d 64 24 f0       	lea    -0x10(%rsp),%rsp
    38b1:	db 3c 24             	fstpt  (%rsp)
    38b4:	e8 87 07 00 00       	call   4040 <_ZN3pix6random5drandIeEET_S2_S2_>
    38b9:	48 83 c4 20          	add    $0x20,%rsp
    38bd:	48 8b 85 58 03 ff ff 	mov    -0xfca8(%rbp),%rax
    38c4:	48 c1 e0 04          	shl    $0x4,%rax
    38c8:	48 8d 40 f0          	lea    -0x10(%rax),%rax
    38cc:	48 01 e8             	add    %rbp,%rax
    38cf:	48 2d 10 fa 00 00    	sub    $0xfa10,%rax
    38d5:	db 38                	fstpt  (%rax)
    38d7:	48 83 85 58 03 ff ff 	addq   $0x1,-0xfca8(%rbp)
    38de:	01 
    38df:	48 81 bd 58 03 ff ff 	cmpq   $0x3e7,-0xfca8(%rbp)
    38e6:	e7 03 00 00 
    38ea:	76 b0                	jbe    389c <main+0x424>
    38ec:	48 8d 85 e0 05 ff ff 	lea    -0xfa20(%rbp),%rax
    38f3:	be e8 03 00 00       	mov    $0x3e8,%esi
    38f8:	48 89 c7             	mov    %rax,%rdi
    38fb:	e8 bc 07 00 00       	call   40bc <_ZN3pix4sort10quick_sortIeEEvPT_m>
    3900:	db ad a0 03 ff ff    	fldt   -0xfc60(%rbp)
    3906:	db 2d 34 2b 00 00    	fldt   0x2b34(%rip)        # 6440 <_ZL9PHASE_MAX+0x240>
    390c:	de c9                	fmulp  %st,%st(1)
    390e:	db bd c0 03 ff ff    	fstpt  -0xfc40(%rbp)
    3914:	48 c7 85 60 03 ff ff 	movq   $0x0,-0xfca0(%rbp)
    391b:	00 00 00 00 
    391f:	eb 6d                	jmp    398e <main+0x516>
    3921:	48 8b 85 60 03 ff ff 	mov    -0xfca0(%rbp),%rax
    3928:	48 c1 e0 04          	shl    $0x4,%rax
    392c:	48 8d 40 f0          	lea    -0x10(%rax),%rax
    3930:	48 01 e8             	add    %rbp,%rax
    3933:	48 2d 10 fa 00 00    	sub    $0xfa10,%rax
    3939:	db 28                	fldt   (%rax)
    393b:	db ad c0 03 ff ff    	fldt   -0xfc40(%rbp)
    3941:	de c9                	fmulp  %st,%st(1)
    3943:	db ad b0 03 ff ff    	fldt   -0xfc50(%rbp)
    3949:	de c1                	faddp  %st,%st(1)
    394b:	48 8d 64 24 f0       	lea    -0x10(%rsp),%rsp
    3950:	db 3c 24             	fstpt  (%rsp)
    3953:	e8 d6 f2 ff ff       	call   2c2e <_ZN3pix4math4trig3sinEe>
    3958:	48 83 c4 10          	add    $0x10,%rsp
    395c:	db ad 80 03 ff ff    	fldt   -0xfc80(%rbp)
    3962:	de c9                	fmulp  %st,%st(1)
    3964:	db ad 90 03 ff ff    	fldt   -0xfc70(%rbp)
    396a:	de c1                	faddp  %st,%st(1)
    396c:	48 8b 85 60 03 ff ff 	mov    -0xfca0(%rbp),%rax
    3973:	48 c1 e0 04          	shl    $0x4,%rax
    3977:	48 8d 40 f0          	lea    -0x10(%rax),%rax
    397b:	48 01 e8             	add    %rbp,%rax
    397e:	48 2d 90 bb 00 00    	sub    $0xbb90,%rax
    3984:	db 38                	fstpt  (%rax)
    3986:	48 83 85 60 03 ff ff 	addq   $0x1,-0xfca0(%rbp)
    398d:	01 
    398e:	48 81 bd 60 03 ff ff 	cmpq   $0x3e7,-0xfca0(%rbp)
    3995:	e7 03 00 00 
    3999:	76 86                	jbe    3921 <main+0x4a9>
    399b:	48 8d 85 e0 03 ff ff 	lea    -0xfc20(%rbp),%rax
    39a2:	48 89 c7             	mov    %rax,%rdi
    39a5:	e8 56 e9 ff ff       	call   2300 <_ZNSt14basic_ofstreamIcSt11char_traitsIcEEC1Ev@plt>
    39aa:	48 8d 85 e0 03 ff ff 	lea    -0xfc20(%rbp),%rax
    39b1:	ba 10 00 00 00       	mov    $0x10,%edx
    39b6:	48 8d 0d e9 28 00 00 	lea    0x28e9(%rip),%rcx        # 62a6 <_ZL9PHASE_MAX+0xa6>
    39bd:	48 89 ce             	mov    %rcx,%rsi
    39c0:	48 89 c7             	mov    %rax,%rdi
    39c3:	e8 08 e8 ff ff       	call   21d0 <_ZNSt14basic_ofstreamIcSt11char_traitsIcEE4openEPKcSt13_Ios_Openmode@plt>
    39c8:	48 c7 85 68 03 ff ff 	movq   $0x0,-0xfc98(%rbp)
    39cf:	00 00 00 00 
    39d3:	e9 87 00 00 00       	jmp    3a5f <main+0x5e7>
    39d8:	48 8b 85 68 03 ff ff 	mov    -0xfc98(%rbp),%rax
    39df:	48 c1 e0 04          	shl    $0x4,%rax
    39e3:	48 8d 40 f0          	lea    -0x10(%rax),%rax
    39e7:	48 01 e8             	add    %rbp,%rax
    39ea:	48 2d 10 fa 00 00    	sub    $0xfa10,%rax
    39f0:	db 28                	fldt   (%rax)
    39f2:	48 8d 85 e0 03 ff ff 	lea    -0xfc20(%rbp),%rax
    39f9:	48 8d 64 24 f0       	lea    -0x10(%rsp),%rsp
    39fe:	db 3c 24             	fstpt  (%rsp)
    3a01:	48 89 c7             	mov    %rax,%rdi
    3a04:	e8 77 e8 ff ff       	call   2280 <_ZNSolsEe@plt>
    3a09:	48 83 c4 10          	add    $0x10,%rsp
    3a0d:	be 20 00 00 00       	mov    $0x20,%esi
    3a12:	48 89 c7             	mov    %rax,%rdi
    3a15:	e8 76 e8 ff ff       	call   2290 <_ZStlsISt11char_traitsIcEERSt13basic_ostreamIcT_ES5_c@plt>
    3a1a:	48 8b 95 68 03 ff ff 	mov    -0xfc98(%rbp),%rdx
    3a21:	48 c1 e2 04          	shl    $0x4,%rdx
    3a25:	48 8d 5a f0          	lea    -0x10(%rdx),%rbx
    3a29:	48 8d 14 2b          	lea    (%rbx,%rbp,1),%rdx
    3a2d:	48 81 ea 90 bb 00 00 	sub    $0xbb90,%rdx
    3a34:	db 2a                	fldt   (%rdx)
    3a36:	48 8d 64 24 f0       	lea    -0x10(%rsp),%rsp
    3a3b:	db 3c 24             	fstpt  (%rsp)
    3a3e:	48 89 c7             	mov    %rax,%rdi
    3a41:	e8 3a e8 ff ff       	call   2280 <_ZNSolsEe@plt>
    3a46:	48 83 c4 10          	add    $0x10,%rsp
    3a4a:	be 0a 00 00 00       	mov    $0xa,%esi
    3a4f:	48 89 c7             	mov    %rax,%rdi
    3a52:	e8 39 e8 ff ff       	call   2290 <_ZStlsISt11char_traitsIcEERSt13basic_ostreamIcT_ES5_c@plt>
    3a57:	48 83 85 68 03 ff ff 	addq   $0x1,-0xfc98(%rbp)
    3a5e:	01 
    3a5f:	48 81 bd 68 03 ff ff 	cmpq   $0x3e7,-0xfc98(%rbp)
    3a66:	e7 03 00 00 
    3a6a:	0f 86 68 ff ff ff    	jbe    39d8 <main+0x560>
    3a70:	48 8d 85 e0 03 ff ff 	lea    -0xfc20(%rbp),%rax
    3a77:	48 89 c7             	mov    %rax,%rdi
    3a7a:	e8 31 e8 ff ff       	call   22b0 <_ZNSt14basic_ofstreamIcSt11char_traitsIcEE5closeEv@plt>
    3a7f:	48 8d 85 60 44 ff ff 	lea    -0xbba0(%rbp),%rax
    3a86:	be e8 03 00 00       	mov    $0x3e8,%esi
    3a8b:	48 89 c7             	mov    %rax,%rdi
    3a8e:	e8 bd 06 00 00       	call   4150 <_ZN3pix4math6signal8mean_subIeEEvPT_m>
    3a93:	48 8d 85 60 44 ff ff 	lea    -0xbba0(%rbp),%rax
    3a9a:	be e8 03 00 00       	mov    $0x3e8,%esi
    3a9f:	48 89 c7             	mov    %rax,%rdi
    3aa2:	e8 81 07 00 00       	call   4228 <_ZN3pix4math6signal4normIeEEvPT_m>
    3aa7:	48 8d 85 60 44 ff ff 	lea    -0xbba0(%rbp),%rax
    3aae:	be e8 03 00 00       	mov    $0x3e8,%esi
    3ab3:	48 89 c7             	mov    %rax,%rdi
    3ab6:	e8 56 08 00 00       	call   4311 <_ZN3pix4math6signal6window8blackmanIeEEvPT_m>
    3abb:	db 2d 1f 2a 00 00    	fldt   0x2a1f(%rip)        # 64e0 <_ZL9PHASE_MAX+0x2e0>
    3ac1:	db bd d0 03 ff ff    	fstpt  -0xfc30(%rbp)
    3ac7:	48 c7 85 70 03 ff ff 	movq   $0x0,-0xfc90(%rbp)
    3ace:	00 00 00 00 
    3ad2:	eb 46                	jmp    3b1a <main+0x6a2>
    3ad4:	df ad 70 03 ff ff    	fildll -0xfc90(%rbp)
    3ada:	48 83 bd 70 03 ff ff 	cmpq   $0x0,-0xfc90(%rbp)
    3ae1:	00 
    3ae2:	79 08                	jns    3aec <main+0x674>
    3ae4:	db 2d 36 29 00 00    	fldt   0x2936(%rip)        # 6420 <_ZL9PHASE_MAX+0x220>
    3aea:	de c1                	faddp  %st,%st(1)
    3aec:	db ad d0 03 ff ff    	fldt   -0xfc30(%rbp)
    3af2:	de c9                	fmulp  %st,%st(1)
    3af4:	d9 e8                	fld1   
    3af6:	de c1                	faddp  %st,%st(1)
    3af8:	48 8b 85 70 03 ff ff 	mov    -0xfc90(%rbp),%rax
    3aff:	48 c1 e0 04          	shl    $0x4,%rax
    3b03:	48 8d 40 f0          	lea    -0x10(%rax),%rax
    3b07:	48 01 e8             	add    %rbp,%rax
    3b0a:	48 2d 10 7d 00 00    	sub    $0x7d10,%rax
    3b10:	db 38                	fstpt  (%rax)
    3b12:	48 83 85 70 03 ff ff 	addq   $0x1,-0xfc90(%rbp)
    3b19:	01 
    3b1a:	48 81 bd 70 03 ff ff 	cmpq   $0x3e7,-0xfc90(%rbp)
    3b21:	e7 03 00 00 
    3b25:	76 ad                	jbe    3ad4 <main+0x65c>
    3b27:	48 8d 8d 60 c1 ff ff 	lea    -0x3ea0(%rbp),%rcx
    3b2e:	48 8d 95 e0 82 ff ff 	lea    -0x7d20(%rbp),%rdx
    3b35:	48 8d b5 60 44 ff ff 	lea    -0xbba0(%rbp),%rsi
    3b3c:	48 8d 85 e0 05 ff ff 	lea    -0xfa20(%rbp),%rax
    3b43:	41 b9 e8 03 00 00    	mov    $0x3e8,%r9d
    3b49:	41 b8 e8 03 00 00    	mov    $0x3e8,%r8d
    3b4f:	48 89 c7             	mov    %rax,%rdi
    3b52:	e8 44 09 00 00       	call   449b <_ZN3pix4math6signal9transform3dftIeEEvPKT_S6_S6_PS4_mm>
    3b57:	48 8d 85 e0 03 ff ff 	lea    -0xfc20(%rbp),%rax
    3b5e:	ba 10 00 00 00       	mov    $0x10,%edx
    3b63:	48 8d 0d 4d 27 00 00 	lea    0x274d(%rip),%rcx        # 62b7 <_ZL9PHASE_MAX+0xb7>
    3b6a:	48 89 ce             	mov    %rcx,%rsi
    3b6d:	48 89 c7             	mov    %rax,%rdi
    3b70:	e8 5b e6 ff ff       	call   21d0 <_ZNSt14basic_ofstreamIcSt11char_traitsIcEE4openEPKcSt13_Ios_Openmode@plt>
    3b75:	48 c7 85 78 03 ff ff 	movq   $0x0,-0xfc88(%rbp)
    3b7c:	00 00 00 00 
    3b80:	e9 87 00 00 00       	jmp    3c0c <main+0x794>
    3b85:	48 8b 85 78 03 ff ff 	mov    -0xfc88(%rbp),%rax
    3b8c:	48 c1 e0 04          	shl    $0x4,%rax
    3b90:	48 8d 40 f0          	lea    -0x10(%rax),%rax
    3b94:	48 01 e8             	add    %rbp,%rax
    3b97:	48 2d 10 7d 00 00    	sub    $0x7d10,%rax
    3b9d:	db 28                	fldt   (%rax)
    3b9f:	48 8d 85 e0 03 ff ff 	lea    -0xfc20(%rbp),%rax
    3ba6:	48 8d 64 24 f0       	lea    -0x10(%rsp),%rsp
    3bab:	db 3c 24             	fstpt  (%rsp)
    3bae:	48 89 c7             	mov    %rax,%rdi
    3bb1:	e8 ca e6 ff ff       	call   2280 <_ZNSolsEe@plt>
    3bb6:	48 83 c4 10          	add    $0x10,%rsp
    3bba:	be 20 00 00 00       	mov    $0x20,%esi
    3bbf:	48 89 c7             	mov    %rax,%rdi
    3bc2:	e8 c9 e6 ff ff       	call   2290 <_ZStlsISt11char_traitsIcEERSt13basic_ostreamIcT_ES5_c@plt>
    3bc7:	48 8b 95 78 03 ff ff 	mov    -0xfc88(%rbp),%rdx
    3bce:	48 c1 e2 04          	shl    $0x4,%rdx
    3bd2:	48 8d 5a f0          	lea    -0x10(%rdx),%rbx
    3bd6:	48 8d 14 2b          	lea    (%rbx,%rbp,1),%rdx
    3bda:	48 81 ea 90 3e 00 00 	sub    $0x3e90,%rdx
    3be1:	db 2a                	fldt   (%rdx)
    3be3:	48 8d 64 24 f0       	lea    -0x10(%rsp),%rsp
    3be8:	db 3c 24             	fstpt  (%rsp)
    3beb:	48 89 c7             	mov    %rax,%rdi
    3bee:	e8 8d e6 ff ff       	call   2280 <_ZNSolsEe@plt>
    3bf3:	48 83 c4 10          	add    $0x10,%rsp
    3bf7:	be 0a 00 00 00       	mov    $0xa,%esi
    3bfc:	48 89 c7             	mov    %rax,%rdi
    3bff:	e8 8c e6 ff ff       	call   2290 <_ZStlsISt11char_traitsIcEERSt13basic_ostreamIcT_ES5_c@plt>
    3c04:	48 83 85 78 03 ff ff 	addq   $0x1,-0xfc88(%rbp)
    3c0b:	01 
    3c0c:	48 81 bd 78 03 ff ff 	cmpq   $0x3e7,-0xfc88(%rbp)
    3c13:	e7 03 00 00 
    3c17:	0f 86 68 ff ff ff    	jbe    3b85 <main+0x70d>
    3c1d:	48 8d 85 e0 03 ff ff 	lea    -0xfc20(%rbp),%rax
    3c24:	48 89 c7             	mov    %rax,%rdi
    3c27:	e8 84 e6 ff ff       	call   22b0 <_ZNSt14basic_ofstreamIcSt11char_traitsIcEE5closeEv@plt>
    3c2c:	bb 00 00 00 00       	mov    $0x0,%ebx
    3c31:	48 8d 85 e0 03 ff ff 	lea    -0xfc20(%rbp),%rax
    3c38:	48 89 c7             	mov    %rax,%rdi
    3c3b:	e8 80 e6 ff ff       	call   22c0 <_ZNSt14basic_ofstreamIcSt11char_traitsIcEED1Ev@plt>
    3c40:	89 d8                	mov    %ebx,%eax
    3c42:	48 8b 55 e8          	mov    -0x18(%rbp),%rdx
    3c46:	64 48 2b 14 25 28 00 	sub    %fs:0x28,%rdx
    3c4d:	00 00 
    3c4f:	74 28                	je     3c79 <main+0x801>
    3c51:	eb 21                	jmp    3c74 <main+0x7fc>
    3c53:	f3 0f 1e fa          	endbr64 
    3c57:	48 89 c3             	mov    %rax,%rbx
    3c5a:	48 8d 85 e0 03 ff ff 	lea    -0xfc20(%rbp),%rax
    3c61:	48 89 c7             	mov    %rax,%rdi
    3c64:	e8 57 e6 ff ff       	call   22c0 <_ZNSt14basic_ofstreamIcSt11char_traitsIcEED1Ev@plt>
    3c69:	48 89 d8             	mov    %rbx,%rax
    3c6c:	48 89 c7             	mov    %rax,%rdi
    3c6f:	e8 bc e6 ff ff       	call   2330 <_Unwind_Resume@plt>
    3c74:	e8 f7 e5 ff ff       	call   2270 <__stack_chk_fail@plt>
    3c79:	48 8b 5d f8          	mov    -0x8(%rbp),%rbx
    3c7d:	c9                   	leave  
    3c7e:	c3                   	ret    

0000000000003c7f <_Z12_quick_sort_IeEvPT_mm>:
    3c7f:	f3 0f 1e fa          	endbr64 
    3c83:	55                   	push   %rbp
    3c84:	48 89 e5             	mov    %rsp,%rbp
    3c87:	48 83 ec 30          	sub    $0x30,%rsp
    3c8b:	48 89 7d e8          	mov    %rdi,-0x18(%rbp)
    3c8f:	48 89 75 e0          	mov    %rsi,-0x20(%rbp)
    3c93:	48 89 55 d8          	mov    %rdx,-0x28(%rbp)
    3c97:	48 8b 45 e0          	mov    -0x20(%rbp),%rax
    3c9b:	48 3b 45 d8          	cmp    -0x28(%rbp),%rax
    3c9f:	73 4f                	jae    3cf0 <_Z12_quick_sort_IeEvPT_mm+0x71>
    3ca1:	48 8b 55 d8          	mov    -0x28(%rbp),%rdx
    3ca5:	48 8b 4d e0          	mov    -0x20(%rbp),%rcx
    3ca9:	48 8b 45 e8          	mov    -0x18(%rbp),%rax
    3cad:	48 89 ce             	mov    %rcx,%rsi
    3cb0:	48 89 c7             	mov    %rax,%rdi
    3cb3:	e8 3b 00 00 00       	call   3cf3 <_Z11_partition_IeEKmPT_mm>
    3cb8:	48 89 45 f8          	mov    %rax,-0x8(%rbp)
    3cbc:	48 8b 55 f8          	mov    -0x8(%rbp),%rdx
    3cc0:	48 8b 4d e0          	mov    -0x20(%rbp),%rcx
    3cc4:	48 8b 45 e8          	mov    -0x18(%rbp),%rax
    3cc8:	48 89 ce             	mov    %rcx,%rsi
    3ccb:	48 89 c7             	mov    %rax,%rdi
    3cce:	e8 ac ff ff ff       	call   3c7f <_Z12_quick_sort_IeEvPT_mm>
    3cd3:	48 8b 45 f8          	mov    -0x8(%rbp),%rax
    3cd7:	48 8d 48 01          	lea    0x1(%rax),%rcx
    3cdb:	48 8b 55 d8          	mov    -0x28(%rbp),%rdx
    3cdf:	48 8b 45 e8          	mov    -0x18(%rbp),%rax
    3ce3:	48 89 ce             	mov    %rcx,%rsi
    3ce6:	48 89 c7             	mov    %rax,%rdi
    3ce9:	e8 91 ff ff ff       	call   3c7f <_Z12_quick_sort_IeEvPT_mm>
    3cee:	eb 01                	jmp    3cf1 <_Z12_quick_sort_IeEvPT_mm+0x72>
    3cf0:	90                   	nop
    3cf1:	c9                   	leave  
    3cf2:	c3                   	ret    

0000000000003cf3 <_Z11_partition_IeEKmPT_mm>:
    3cf3:	f3 0f 1e fa          	endbr64 
    3cf7:	55                   	push   %rbp
    3cf8:	48 89 e5             	mov    %rsp,%rbp
    3cfb:	48 83 ec 50          	sub    $0x50,%rsp
    3cff:	48 89 7d c8          	mov    %rdi,-0x38(%rbp)
    3d03:	48 89 75 c0          	mov    %rsi,-0x40(%rbp)
    3d07:	48 89 55 b8          	mov    %rdx,-0x48(%rbp)
    3d0b:	48 c7 45 d8 00 00 00 	movq   $0x0,-0x28(%rbp)
    3d12:	00 
    3d13:	48 8b 45 c0          	mov    -0x40(%rbp),%rax
    3d17:	48 c1 e0 04          	shl    $0x4,%rax
    3d1b:	48 89 c2             	mov    %rax,%rdx
    3d1e:	48 8b 45 c8          	mov    -0x38(%rbp),%rax
    3d22:	48 01 d0             	add    %rdx,%rax
    3d25:	db 28                	fldt   (%rax)
    3d27:	db 7d f0             	fstpt  -0x10(%rbp)
    3d2a:	48 8b 45 c0          	mov    -0x40(%rbp),%rax
    3d2e:	48 83 c0 01          	add    $0x1,%rax
    3d32:	48 89 45 e0          	mov    %rax,-0x20(%rbp)
    3d36:	eb 2a                	jmp    3d62 <_Z11_partition_IeEKmPT_mm+0x6f>
    3d38:	48 8b 45 e0          	mov    -0x20(%rbp),%rax
    3d3c:	48 c1 e0 04          	shl    $0x4,%rax
    3d40:	48 89 c2             	mov    %rax,%rdx
    3d43:	48 8b 45 c8          	mov    -0x38(%rbp),%rax
    3d47:	48 01 d0             	add    %rdx,%rax
    3d4a:	db 6d f0             	fldt   -0x10(%rbp)
    3d4d:	db 28                	fldt   (%rax)
    3d4f:	df f1                	fcomip %st(1),%st
    3d51:	dd d8                	fstp   %st(0)
    3d53:	77 07                	ja     3d5c <_Z11_partition_IeEKmPT_mm+0x69>
    3d55:	48 83 45 d8 01       	addq   $0x1,-0x28(%rbp)
    3d5a:	eb 01                	jmp    3d5d <_Z11_partition_IeEKmPT_mm+0x6a>
    3d5c:	90                   	nop
    3d5d:	48 83 45 e0 01       	addq   $0x1,-0x20(%rbp)
    3d62:	48 8b 45 e0          	mov    -0x20(%rbp),%rax
    3d66:	48 3b 45 b8          	cmp    -0x48(%rbp),%rax
    3d6a:	76 cc                	jbe    3d38 <_Z11_partition_IeEKmPT_mm+0x45>
    3d6c:	48 8b 55 c0          	mov    -0x40(%rbp),%rdx
    3d70:	48 8b 45 d8          	mov    -0x28(%rbp),%rax
    3d74:	48 01 d0             	add    %rdx,%rax
    3d77:	48 89 45 e8          	mov    %rax,-0x18(%rbp)
    3d7b:	48 8b 45 c0          	mov    -0x40(%rbp),%rax
    3d7f:	48 c1 e0 04          	shl    $0x4,%rax
    3d83:	48 89 c2             	mov    %rax,%rdx
    3d86:	48 8b 45 c8          	mov    -0x38(%rbp),%rax
    3d8a:	48 01 c2             	add    %rax,%rdx
    3d8d:	48 8b 45 e8          	mov    -0x18(%rbp),%rax
    3d91:	48 c1 e0 04          	shl    $0x4,%rax
    3d95:	48 89 c1             	mov    %rax,%rcx
    3d98:	48 8b 45 c8          	mov    -0x38(%rbp),%rax
    3d9c:	48 01 c8             	add    %rcx,%rax
    3d9f:	48 89 d6             	mov    %rdx,%rsi
    3da2:	48 89 c7             	mov    %rax,%rdi
    3da5:	e8 0f 0c 00 00       	call   49b9 <_ZN3pix7c_array4swapIeEEvRT_S3_>
    3daa:	e9 93 00 00 00       	jmp    3e42 <_Z11_partition_IeEKmPT_mm+0x14f>
    3daf:	48 83 45 c0 01       	addq   $0x1,-0x40(%rbp)
    3db4:	48 8b 45 c0          	mov    -0x40(%rbp),%rax
    3db8:	48 c1 e0 04          	shl    $0x4,%rax
    3dbc:	48 89 c2             	mov    %rax,%rdx
    3dbf:	48 8b 45 c8          	mov    -0x38(%rbp),%rax
    3dc3:	48 01 d0             	add    %rdx,%rax
    3dc6:	db 28                	fldt   (%rax)
    3dc8:	db 6d f0             	fldt   -0x10(%rbp)
    3dcb:	df f1                	fcomip %st(1),%st
    3dcd:	dd d8                	fstp   %st(0)
    3dcf:	73 de                	jae    3daf <_Z11_partition_IeEKmPT_mm+0xbc>
    3dd1:	eb 05                	jmp    3dd8 <_Z11_partition_IeEKmPT_mm+0xe5>
    3dd3:	48 83 6d b8 01       	subq   $0x1,-0x48(%rbp)
    3dd8:	48 8b 45 b8          	mov    -0x48(%rbp),%rax
    3ddc:	48 c1 e0 04          	shl    $0x4,%rax
    3de0:	48 89 c2             	mov    %rax,%rdx
    3de3:	48 8b 45 c8          	mov    -0x38(%rbp),%rax
    3de7:	48 01 d0             	add    %rdx,%rax
    3dea:	db 6d f0             	fldt   -0x10(%rbp)
    3ded:	db 28                	fldt   (%rax)
    3def:	df f1                	fcomip %st(1),%st
    3df1:	dd d8                	fstp   %st(0)
    3df3:	77 de                	ja     3dd3 <_Z11_partition_IeEKmPT_mm+0xe0>
    3df5:	48 8b 45 c0          	mov    -0x40(%rbp),%rax
    3df9:	48 3b 45 e8          	cmp    -0x18(%rbp),%rax
    3dfd:	73 43                	jae    3e42 <_Z11_partition_IeEKmPT_mm+0x14f>
    3dff:	48 8b 45 b8          	mov    -0x48(%rbp),%rax
    3e03:	48 3b 45 e8          	cmp    -0x18(%rbp),%rax
    3e07:	76 39                	jbe    3e42 <_Z11_partition_IeEKmPT_mm+0x14f>
    3e09:	48 8b 45 b8          	mov    -0x48(%rbp),%rax
    3e0d:	48 c1 e0 04          	shl    $0x4,%rax
    3e11:	48 89 c2             	mov    %rax,%rdx
    3e14:	48 8b 45 c8          	mov    -0x38(%rbp),%rax
    3e18:	48 01 c2             	add    %rax,%rdx
    3e1b:	48 8b 45 c0          	mov    -0x40(%rbp),%rax
    3e1f:	48 c1 e0 04          	shl    $0x4,%rax
    3e23:	48 89 c1             	mov    %rax,%rcx
    3e26:	48 8b 45 c8          	mov    -0x38(%rbp),%rax
    3e2a:	48 01 c8             	add    %rcx,%rax
    3e2d:	48 89 d6             	mov    %rdx,%rsi
    3e30:	48 89 c7             	mov    %rax,%rdi
    3e33:	e8 81 0b 00 00       	call   49b9 <_ZN3pix7c_array4swapIeEEvRT_S3_>
    3e38:	48 83 45 c0 01       	addq   $0x1,-0x40(%rbp)
    3e3d:	48 83 6d b8 01       	subq   $0x1,-0x48(%rbp)
    3e42:	48 8b 45 c0          	mov    -0x40(%rbp),%rax
    3e46:	48 3b 45 e8          	cmp    -0x18(%rbp),%rax
    3e4a:	73 0e                	jae    3e5a <_Z11_partition_IeEKmPT_mm+0x167>
    3e4c:	48 8b 45 b8          	mov    -0x48(%rbp),%rax
    3e50:	48 3b 45 e8          	cmp    -0x18(%rbp),%rax
    3e54:	0f 87 5a ff ff ff    	ja     3db4 <_Z11_partition_IeEKmPT_mm+0xc1>
    3e5a:	48 8b 45 e8          	mov    -0x18(%rbp),%rax
    3e5e:	c9                   	leave  
    3e5f:	c3                   	ret    

0000000000003e60 <_Z41__static_initialization_and_destruction_0ii>:
    3e60:	f3 0f 1e fa          	endbr64 
    3e64:	55                   	push   %rbp
    3e65:	48 89 e5             	mov    %rsp,%rbp
    3e68:	48 83 ec 10          	sub    $0x10,%rsp
    3e6c:	89 7d fc             	mov    %edi,-0x4(%rbp)
    3e6f:	89 75 f8             	mov    %esi,-0x8(%rbp)
    3e72:	83 7d fc 01          	cmpl   $0x1,-0x4(%rbp)
    3e76:	75 3b                	jne    3eb3 <_Z41__static_initialization_and_destruction_0ii+0x53>
    3e78:	81 7d f8 ff ff 00 00 	cmpl   $0xffff,-0x8(%rbp)
    3e7f:	75 32                	jne    3eb3 <_Z41__static_initialization_and_destruction_0ii+0x53>
    3e81:	48 8d 05 f1 53 00 00 	lea    0x53f1(%rip),%rax        # 9279 <_ZStL8__ioinit>
    3e88:	48 89 c7             	mov    %rax,%rdi
    3e8b:	e8 40 e4 ff ff       	call   22d0 <_ZNSt8ios_base4InitC1Ev@plt>
    3e90:	48 8d 05 71 51 00 00 	lea    0x5171(%rip),%rax        # 9008 <__dso_handle>
    3e97:	48 89 c2             	mov    %rax,%rdx
    3e9a:	48 8d 05 d8 53 00 00 	lea    0x53d8(%rip),%rax        # 9279 <_ZStL8__ioinit>
    3ea1:	48 89 c6             	mov    %rax,%rsi
    3ea4:	48 8b 05 4d 51 00 00 	mov    0x514d(%rip),%rax        # 8ff8 <_ZNSt8ios_base4InitD1Ev@GLIBCXX_3.4>
    3eab:	48 89 c7             	mov    %rax,%rdi
    3eae:	e8 9d e3 ff ff       	call   2250 <__cxa_atexit@plt>
    3eb3:	90                   	nop
    3eb4:	c9                   	leave  
    3eb5:	c3                   	ret    

0000000000003eb6 <_GLOBAL__sub_I__ZN3pix6random5crandEv>:
    3eb6:	f3 0f 1e fa          	endbr64 
    3eba:	55                   	push   %rbp
    3ebb:	48 89 e5             	mov    %rsp,%rbp
    3ebe:	be ff ff 00 00       	mov    $0xffff,%esi
    3ec3:	bf 01 00 00 00       	mov    $0x1,%edi
    3ec8:	e8 93 ff ff ff       	call   3e60 <_Z41__static_initialization_and_destruction_0ii>
    3ecd:	5d                   	pop    %rbp
    3ece:	c3                   	ret    

0000000000003ecf <_ZN3pix4math3NaNEv>:
    3ecf:	f3 0f 1e fa          	endbr64 
    3ed3:	55                   	push   %rbp
    3ed4:	48 89 e5             	mov    %rsp,%rbp
    3ed7:	48 8d 05 e2 21 00 00 	lea    0x21e2(%rip),%rax        # 60c0 <_ZL7STD_NaN>
    3ede:	f2 0f 10 00          	movsd  (%rax),%xmm0
    3ee2:	66 48 0f 7e c0       	movq   %xmm0,%rax
    3ee7:	66 48 0f 6e c0       	movq   %rax,%xmm0
    3eec:	5d                   	pop    %rbp
    3eed:	c3                   	ret    

0000000000003eee <_ZN3pix6random4randImEET_v>:
    3eee:	f3 0f 1e fa          	endbr64 
    3ef2:	55                   	push   %rbp
    3ef3:	48 89 e5             	mov    %rsp,%rbp
    3ef6:	48 8b 05 13 51 00 00 	mov    0x5113(%rip),%rax        # 9010 <_ZZN3pix6random4randImEET_vE5value>
    3efd:	48 8d 15 9d 21 00 00 	lea    0x219d(%rip),%rdx        # 60a1 <_ZL9SEED_BYTE+0x1>
    3f04:	48 0f af d0          	imul   %rax,%rdx
    3f08:	48 8d 05 91 21 00 00 	lea    0x2191(%rip),%rax        # 60a0 <_ZL9SEED_BYTE>
    3f0f:	48 83 e8 01          	sub    $0x1,%rax
    3f13:	48 8d 0c 02          	lea    (%rdx,%rax,1),%rcx
    3f17:	48 ba 05 00 00 00 02 	movabs $0x200000005,%rdx
    3f1e:	00 00 00 
    3f21:	48 89 c8             	mov    %rcx,%rax
    3f24:	48 f7 e2             	mul    %rdx
    3f27:	48 89 c8             	mov    %rcx,%rax
    3f2a:	48 29 d0             	sub    %rdx,%rax
    3f2d:	48 d1 e8             	shr    %rax
    3f30:	48 01 d0             	add    %rdx,%rax
    3f33:	48 c1 e8 1e          	shr    $0x1e,%rax
    3f37:	48 89 c2             	mov    %rax,%rdx
    3f3a:	48 c1 e2 1f          	shl    $0x1f,%rdx
    3f3e:	48 29 c2             	sub    %rax,%rdx
    3f41:	48 89 c8             	mov    %rcx,%rax
    3f44:	48 29 d0             	sub    %rdx,%rax
    3f47:	48 89 05 c2 50 00 00 	mov    %rax,0x50c2(%rip)        # 9010 <_ZZN3pix6random4randImEET_vE5value>
    3f4e:	48 8b 05 bb 50 00 00 	mov    0x50bb(%rip),%rax        # 9010 <_ZZN3pix6random4randImEET_vE5value>
    3f55:	5d                   	pop    %rbp
    3f56:	c3                   	ret    

0000000000003f57 <_ZN3pix4math3absIeEET_S2_>:
    3f57:	f3 0f 1e fa          	endbr64 
    3f5b:	55                   	push   %rbp
    3f5c:	48 89 e5             	mov    %rsp,%rbp
    3f5f:	db 6d 10             	fldt   0x10(%rbp)
    3f62:	d9 ee                	fldz   
    3f64:	df f1                	fcomip %st(1),%st
    3f66:	dd d8                	fstp   %st(0)
    3f68:	76 07                	jbe    3f71 <_ZN3pix4math3absIeEET_S2_+0x1a>
    3f6a:	db 6d 10             	fldt   0x10(%rbp)
    3f6d:	d9 e0                	fchs   
    3f6f:	eb 03                	jmp    3f74 <_ZN3pix4math3absIeEET_S2_+0x1d>
    3f71:	db 6d 10             	fldt   0x10(%rbp)
    3f74:	5d                   	pop    %rbp
    3f75:	c3                   	ret    

0000000000003f76 <_ZN3pix4math5floorIeEET_S2_>:
    3f76:	f3 0f 1e fa          	endbr64 
    3f7a:	55                   	push   %rbp
    3f7b:	48 89 e5             	mov    %rsp,%rbp
    3f7e:	db 6d 10             	fldt   0x10(%rbp)
    3f81:	d9 7d fe             	fnstcw -0x2(%rbp)
    3f84:	0f b7 45 fe          	movzwl -0x2(%rbp),%eax
    3f88:	80 cc 0c             	or     $0xc,%ah
    3f8b:	66 89 45 fc          	mov    %ax,-0x4(%rbp)
    3f8f:	d9 6d fc             	fldcw  -0x4(%rbp)
    3f92:	db 5d f8             	fistpl -0x8(%rbp)
    3f95:	d9 6d fe             	fldcw  -0x2(%rbp)
    3f98:	db 45 f8             	fildl  -0x8(%rbp)
    3f9b:	5d                   	pop    %rbp
    3f9c:	c3                   	ret    

0000000000003f9d <_ZN3pix4math5f_modIeEET_S2_S2_>:
    3f9d:	f3 0f 1e fa          	endbr64 
    3fa1:	55                   	push   %rbp
    3fa2:	48 89 e5             	mov    %rsp,%rbp
    3fa5:	db 6d 10             	fldt   0x10(%rbp)
    3fa8:	d9 ee                	fldz   
    3faa:	df f1                	fcomip %st(1),%st
    3fac:	dd d8                	fstp   %st(0)
    3fae:	76 2b                	jbe    3fdb <_ZN3pix4math5f_modIeEET_S2_S2_+0x3e>
    3fb0:	bf 08 00 00 00       	mov    $0x8,%edi
    3fb5:	e8 76 e2 ff ff       	call   2230 <__cxa_allocate_exception@plt>
    3fba:	48 8d 15 43 21 00 00 	lea    0x2143(%rip),%rdx        # 6104 <_ZL7STD_NaN+0x44>
    3fc1:	48 89 10             	mov    %rdx,(%rax)
    3fc4:	ba 00 00 00 00       	mov    $0x0,%edx
    3fc9:	48 8d 0d f0 4c 00 00 	lea    0x4cf0(%rip),%rcx        # 8cc0 <_ZTIPKc@CXXABI_1.3>
    3fd0:	48 89 ce             	mov    %rcx,%rsi
    3fd3:	48 89 c7             	mov    %rax,%rdi
    3fd6:	e8 35 e3 ff ff       	call   2310 <__cxa_throw@plt>
    3fdb:	db 6d 20             	fldt   0x20(%rbp)
    3fde:	d9 ee                	fldz   
    3fe0:	df f1                	fcomip %st(1),%st
    3fe2:	dd d8                	fstp   %st(0)
    3fe4:	72 2b                	jb     4011 <_ZN3pix4math5f_modIeEET_S2_S2_+0x74>
    3fe6:	bf 08 00 00 00       	mov    $0x8,%edi
    3feb:	e8 40 e2 ff ff       	call   2230 <__cxa_allocate_exception@plt>
    3ff0:	48 8d 15 d9 22 00 00 	lea    0x22d9(%rip),%rdx        # 62d0 <_ZL9PHASE_MAX+0xd0>
    3ff7:	48 89 10             	mov    %rdx,(%rax)
    3ffa:	ba 00 00 00 00       	mov    $0x0,%edx
    3fff:	48 8d 0d ba 4c 00 00 	lea    0x4cba(%rip),%rcx        # 8cc0 <_ZTIPKc@CXXABI_1.3>
    4006:	48 89 ce             	mov    %rcx,%rsi
    4009:	48 89 c7             	mov    %rax,%rdi
    400c:	e8 ff e2 ff ff       	call   2310 <__cxa_throw@plt>
    4011:	db 6d 10             	fldt   0x10(%rbp)
    4014:	db 6d 20             	fldt   0x20(%rbp)
    4017:	df f1                	fcomip %st(1),%st
    4019:	dd d8                	fstp   %st(0)
    401b:	76 05                	jbe    4022 <_ZN3pix4math5f_modIeEET_S2_S2_+0x85>
    401d:	db 6d 10             	fldt   0x10(%rbp)
    4020:	eb 1c                	jmp    403e <_ZN3pix4math5f_modIeEET_S2_S2_+0xa1>
    4022:	eb 0b                	jmp    402f <_ZN3pix4math5f_modIeEET_S2_S2_+0x92>
    4024:	db 6d 10             	fldt   0x10(%rbp)
    4027:	db 6d 20             	fldt   0x20(%rbp)
    402a:	de e9                	fsubrp %st,%st(1)
    402c:	db 7d 10             	fstpt  0x10(%rbp)
    402f:	db 6d 20             	fldt   0x20(%rbp)
    4032:	db 6d 10             	fldt   0x10(%rbp)
    4035:	df f1                	fcomip %st(1),%st
    4037:	dd d8                	fstp   %st(0)
    4039:	73 e9                	jae    4024 <_ZN3pix4math5f_modIeEET_S2_S2_+0x87>
    403b:	db 6d 10             	fldt   0x10(%rbp)
    403e:	5d                   	pop    %rbp
    403f:	c3                   	ret    

0000000000004040 <_ZN3pix6random5drandIeEET_S2_S2_>:
    4040:	f3 0f 1e fa          	endbr64 
    4044:	55                   	push   %rbp
    4045:	48 89 e5             	mov    %rsp,%rbp
    4048:	48 83 ec 10          	sub    $0x10,%rsp
    404c:	db 6d 20             	fldt   0x20(%rbp)
    404f:	db 6d 10             	fldt   0x10(%rbp)
    4052:	df f1                	fcomip %st(1),%st
    4054:	dd d8                	fstp   %st(0)
    4056:	76 2b                	jbe    4083 <_ZN3pix6random5drandIeEET_S2_S2_+0x43>
    4058:	bf 08 00 00 00       	mov    $0x8,%edi
    405d:	e8 ce e1 ff ff       	call   2230 <__cxa_allocate_exception@plt>
    4062:	48 8d 15 8f 22 00 00 	lea    0x228f(%rip),%rdx        # 62f8 <_ZL9PHASE_MAX+0xf8>
    4069:	48 89 10             	mov    %rdx,(%rax)
    406c:	ba 00 00 00 00       	mov    $0x0,%edx
    4071:	48 8d 0d 48 4c 00 00 	lea    0x4c48(%rip),%rcx        # 8cc0 <_ZTIPKc@CXXABI_1.3>
    4078:	48 89 ce             	mov    %rcx,%rsi
    407b:	48 89 c7             	mov    %rax,%rdi
    407e:	e8 8d e2 ff ff       	call   2310 <__cxa_throw@plt>
    4083:	db 6d 10             	fldt   0x10(%rbp)
    4086:	db 6d 20             	fldt   0x20(%rbp)
    4089:	df e9                	fucomip %st(1),%st
    408b:	dd d8                	fstp   %st(0)
    408d:	7a 11                	jp     40a0 <_ZN3pix6random5drandIeEET_S2_S2_+0x60>
    408f:	db 6d 10             	fldt   0x10(%rbp)
    4092:	db 6d 20             	fldt   0x20(%rbp)
    4095:	df e9                	fucomip %st(1),%st
    4097:	dd d8                	fstp   %st(0)
    4099:	75 05                	jne    40a0 <_ZN3pix6random5drandIeEET_S2_S2_+0x60>
    409b:	db 6d 10             	fldt   0x10(%rbp)
    409e:	eb 1a                	jmp    40ba <_ZN3pix6random5drandIeEET_S2_S2_+0x7a>
    40a0:	db 6d 20             	fldt   0x20(%rbp)
    40a3:	db 6d 10             	fldt   0x10(%rbp)
    40a6:	de e9                	fsubrp %st,%st(1)
    40a8:	db 7d f0             	fstpt  -0x10(%rbp)
    40ab:	e8 af 06 00 00       	call   475f <_ZN3pix6random5drandIeEET_v>
    40b0:	db 6d f0             	fldt   -0x10(%rbp)
    40b3:	de c9                	fmulp  %st,%st(1)
    40b5:	db 6d 10             	fldt   0x10(%rbp)
    40b8:	de c1                	faddp  %st,%st(1)
    40ba:	c9                   	leave  
    40bb:	c3                   	ret    

00000000000040bc <_ZN3pix4sort10quick_sortIeEEvPT_m>:
    40bc:	f3 0f 1e fa          	endbr64 
    40c0:	55                   	push   %rbp
    40c1:	48 89 e5             	mov    %rsp,%rbp
    40c4:	48 83 ec 10          	sub    $0x10,%rsp
    40c8:	48 89 7d f8          	mov    %rdi,-0x8(%rbp)
    40cc:	48 89 75 f0          	mov    %rsi,-0x10(%rbp)
    40d0:	48 83 7d f8 00       	cmpq   $0x0,-0x8(%rbp)
    40d5:	75 2b                	jne    4102 <_ZN3pix4sort10quick_sortIeEEvPT_m+0x46>
    40d7:	bf 08 00 00 00       	mov    $0x8,%edi
    40dc:	e8 4f e1 ff ff       	call   2230 <__cxa_allocate_exception@plt>
    40e1:	48 8d 15 3f 22 00 00 	lea    0x223f(%rip),%rdx        # 6327 <_ZL9PHASE_MAX+0x127>
    40e8:	48 89 10             	mov    %rdx,(%rax)
    40eb:	ba 00 00 00 00       	mov    $0x0,%edx
    40f0:	48 8d 0d c9 4b 00 00 	lea    0x4bc9(%rip),%rcx        # 8cc0 <_ZTIPKc@CXXABI_1.3>
    40f7:	48 89 ce             	mov    %rcx,%rsi
    40fa:	48 89 c7             	mov    %rax,%rdi
    40fd:	e8 0e e2 ff ff       	call   2310 <__cxa_throw@plt>
    4102:	48 83 7d f0 00       	cmpq   $0x0,-0x10(%rbp)
    4107:	75 2b                	jne    4134 <_ZN3pix4sort10quick_sortIeEEvPT_m+0x78>
    4109:	bf 08 00 00 00       	mov    $0x8,%edi
    410e:	e8 1d e1 ff ff       	call   2230 <__cxa_allocate_exception@plt>
    4113:	48 8d 15 26 22 00 00 	lea    0x2226(%rip),%rdx        # 6340 <_ZL9PHASE_MAX+0x140>
    411a:	48 89 10             	mov    %rdx,(%rax)
    411d:	ba 00 00 00 00       	mov    $0x0,%edx
    4122:	48 8d 0d 97 4b 00 00 	lea    0x4b97(%rip),%rcx        # 8cc0 <_ZTIPKc@CXXABI_1.3>
    4129:	48 89 ce             	mov    %rcx,%rsi
    412c:	48 89 c7             	mov    %rax,%rdi
    412f:	e8 dc e1 ff ff       	call   2310 <__cxa_throw@plt>
    4134:	48 8b 45 f0          	mov    -0x10(%rbp),%rax
    4138:	48 8d 50 ff          	lea    -0x1(%rax),%rdx
    413c:	48 8b 45 f8          	mov    -0x8(%rbp),%rax
    4140:	be 00 00 00 00       	mov    $0x0,%esi
    4145:	48 89 c7             	mov    %rax,%rdi
    4148:	e8 32 fb ff ff       	call   3c7f <_Z12_quick_sort_IeEvPT_mm>
    414d:	90                   	nop
    414e:	c9                   	leave  
    414f:	c3                   	ret    

0000000000004150 <_ZN3pix4math6signal8mean_subIeEEvPT_m>:
    4150:	f3 0f 1e fa          	endbr64 
    4154:	55                   	push   %rbp
    4155:	48 89 e5             	mov    %rsp,%rbp
    4158:	48 83 ec 30          	sub    $0x30,%rsp
    415c:	48 89 7d d8          	mov    %rdi,-0x28(%rbp)
    4160:	48 89 75 d0          	mov    %rsi,-0x30(%rbp)
    4164:	48 83 7d d8 00       	cmpq   $0x0,-0x28(%rbp)
    4169:	75 2b                	jne    4196 <_ZN3pix4math6signal8mean_subIeEEvPT_m+0x46>
    416b:	bf 08 00 00 00       	mov    $0x8,%edi
    4170:	e8 bb e0 ff ff       	call   2230 <__cxa_allocate_exception@plt>
    4175:	48 8d 15 ab 21 00 00 	lea    0x21ab(%rip),%rdx        # 6327 <_ZL9PHASE_MAX+0x127>
    417c:	48 89 10             	mov    %rdx,(%rax)
    417f:	ba 00 00 00 00       	mov    $0x0,%edx
    4184:	48 8d 0d 35 4b 00 00 	lea    0x4b35(%rip),%rcx        # 8cc0 <_ZTIPKc@CXXABI_1.3>
    418b:	48 89 ce             	mov    %rcx,%rsi
    418e:	48 89 c7             	mov    %rax,%rdi
    4191:	e8 7a e1 ff ff       	call   2310 <__cxa_throw@plt>
    4196:	48 83 7d d0 00       	cmpq   $0x0,-0x30(%rbp)
    419b:	75 2b                	jne    41c8 <_ZN3pix4math6signal8mean_subIeEEvPT_m+0x78>
    419d:	bf 08 00 00 00       	mov    $0x8,%edi
    41a2:	e8 89 e0 ff ff       	call   2230 <__cxa_allocate_exception@plt>
    41a7:	48 8d 15 92 21 00 00 	lea    0x2192(%rip),%rdx        # 6340 <_ZL9PHASE_MAX+0x140>
    41ae:	48 89 10             	mov    %rdx,(%rax)
    41b1:	ba 00 00 00 00       	mov    $0x0,%edx
    41b6:	48 8d 0d 03 4b 00 00 	lea    0x4b03(%rip),%rcx        # 8cc0 <_ZTIPKc@CXXABI_1.3>
    41bd:	48 89 ce             	mov    %rcx,%rsi
    41c0:	48 89 c7             	mov    %rax,%rdi
    41c3:	e8 48 e1 ff ff       	call   2310 <__cxa_throw@plt>
    41c8:	48 8b 55 d0          	mov    -0x30(%rbp),%rdx
    41cc:	48 8b 45 d8          	mov    -0x28(%rbp),%rax
    41d0:	48 89 d6             	mov    %rdx,%rsi
    41d3:	48 89 c7             	mov    %rax,%rdi
    41d6:	e8 b3 05 00 00       	call   478e <_ZN3pix4math4stat4meanIeEET_PKS3_m>
    41db:	db 7d f0             	fstpt  -0x10(%rbp)
    41de:	48 c7 45 e8 00 00 00 	movq   $0x0,-0x18(%rbp)
    41e5:	00 
    41e6:	eb 32                	jmp    421a <_ZN3pix4math6signal8mean_subIeEEvPT_m+0xca>
    41e8:	48 8b 45 e8          	mov    -0x18(%rbp),%rax
    41ec:	48 c1 e0 04          	shl    $0x4,%rax
    41f0:	48 89 c2             	mov    %rax,%rdx
    41f3:	48 8b 45 d8          	mov    -0x28(%rbp),%rax
    41f7:	48 01 d0             	add    %rdx,%rax
    41fa:	db 28                	fldt   (%rax)
    41fc:	48 8b 45 e8          	mov    -0x18(%rbp),%rax
    4200:	48 c1 e0 04          	shl    $0x4,%rax
    4204:	48 89 c2             	mov    %rax,%rdx
    4207:	48 8b 45 d8          	mov    -0x28(%rbp),%rax
    420b:	48 01 d0             	add    %rdx,%rax
    420e:	db 6d f0             	fldt   -0x10(%rbp)
    4211:	de e9                	fsubrp %st,%st(1)
    4213:	db 38                	fstpt  (%rax)
    4215:	48 83 45 e8 01       	addq   $0x1,-0x18(%rbp)
    421a:	48 8b 45 e8          	mov    -0x18(%rbp),%rax
    421e:	48 3b 45 d0          	cmp    -0x30(%rbp),%rax
    4222:	72 c4                	jb     41e8 <_ZN3pix4math6signal8mean_subIeEEvPT_m+0x98>
    4224:	90                   	nop
    4225:	90                   	nop
    4226:	c9                   	leave  
    4227:	c3                   	ret    

0000000000004228 <_ZN3pix4math6signal4normIeEEvPT_m>:
    4228:	f3 0f 1e fa          	endbr64 
    422c:	55                   	push   %rbp
    422d:	48 89 e5             	mov    %rsp,%rbp
    4230:	48 83 ec 30          	sub    $0x30,%rsp
    4234:	48 89 7d d8          	mov    %rdi,-0x28(%rbp)
    4238:	48 89 75 d0          	mov    %rsi,-0x30(%rbp)
    423c:	48 83 7d d8 00       	cmpq   $0x0,-0x28(%rbp)
    4241:	75 2b                	jne    426e <_ZN3pix4math6signal4normIeEEvPT_m+0x46>
    4243:	bf 08 00 00 00       	mov    $0x8,%edi
    4248:	e8 e3 df ff ff       	call   2230 <__cxa_allocate_exception@plt>
    424d:	48 8d 15 d3 20 00 00 	lea    0x20d3(%rip),%rdx        # 6327 <_ZL9PHASE_MAX+0x127>
    4254:	48 89 10             	mov    %rdx,(%rax)
    4257:	ba 00 00 00 00       	mov    $0x0,%edx
    425c:	48 8d 0d 5d 4a 00 00 	lea    0x4a5d(%rip),%rcx        # 8cc0 <_ZTIPKc@CXXABI_1.3>
    4263:	48 89 ce             	mov    %rcx,%rsi
    4266:	48 89 c7             	mov    %rax,%rdi
    4269:	e8 a2 e0 ff ff       	call   2310 <__cxa_throw@plt>
    426e:	48 83 7d d0 00       	cmpq   $0x0,-0x30(%rbp)
    4273:	75 2b                	jne    42a0 <_ZN3pix4math6signal4normIeEEvPT_m+0x78>
    4275:	bf 08 00 00 00       	mov    $0x8,%edi
    427a:	e8 b1 df ff ff       	call   2230 <__cxa_allocate_exception@plt>
    427f:	48 8d 15 ba 20 00 00 	lea    0x20ba(%rip),%rdx        # 6340 <_ZL9PHASE_MAX+0x140>
    4286:	48 89 10             	mov    %rdx,(%rax)
    4289:	ba 00 00 00 00       	mov    $0x0,%edx
    428e:	48 8d 0d 2b 4a 00 00 	lea    0x4a2b(%rip),%rcx        # 8cc0 <_ZTIPKc@CXXABI_1.3>
    4295:	48 89 ce             	mov    %rcx,%rsi
    4298:	48 89 c7             	mov    %rax,%rdi
    429b:	e8 70 e0 ff ff       	call   2310 <__cxa_throw@plt>
    42a0:	48 8b 55 d0          	mov    -0x30(%rbp),%rdx
    42a4:	48 8b 45 d8          	mov    -0x28(%rbp),%rax
    42a8:	48 89 d6             	mov    %rdx,%rsi
    42ab:	48 89 c7             	mov    %rax,%rdi
    42ae:	e8 7c 05 00 00       	call   482f <_ZN3pix4math4stat3maxIeEET_PKS3_m>
    42b3:	48 8d 64 24 f0       	lea    -0x10(%rsp),%rsp
    42b8:	db 3c 24             	fstpt  (%rsp)
    42bb:	e8 97 fc ff ff       	call   3f57 <_ZN3pix4math3absIeEET_S2_>
    42c0:	48 83 c4 10          	add    $0x10,%rsp
    42c4:	db 7d f0             	fstpt  -0x10(%rbp)
    42c7:	48 c7 45 e8 00 00 00 	movq   $0x0,-0x18(%rbp)
    42ce:	00 
    42cf:	eb 32                	jmp    4303 <_ZN3pix4math6signal4normIeEEvPT_m+0xdb>
    42d1:	48 8b 45 e8          	mov    -0x18(%rbp),%rax
    42d5:	48 c1 e0 04          	shl    $0x4,%rax
    42d9:	48 89 c2             	mov    %rax,%rdx
    42dc:	48 8b 45 d8          	mov    -0x28(%rbp),%rax
    42e0:	48 01 d0             	add    %rdx,%rax
    42e3:	db 28                	fldt   (%rax)
    42e5:	48 8b 45 e8          	mov    -0x18(%rbp),%rax
    42e9:	48 c1 e0 04          	shl    $0x4,%rax
    42ed:	48 89 c2             	mov    %rax,%rdx
    42f0:	48 8b 45 d8          	mov    -0x28(%rbp),%rax
    42f4:	48 01 d0             	add    %rdx,%rax
    42f7:	db 6d f0             	fldt   -0x10(%rbp)
    42fa:	de f9                	fdivrp %st,%st(1)
    42fc:	db 38                	fstpt  (%rax)
    42fe:	48 83 45 e8 01       	addq   $0x1,-0x18(%rbp)
    4303:	48 8b 45 e8          	mov    -0x18(%rbp),%rax
    4307:	48 3b 45 d0          	cmp    -0x30(%rbp),%rax
    430b:	72 c4                	jb     42d1 <_ZN3pix4math6signal4normIeEEvPT_m+0xa9>
    430d:	90                   	nop
    430e:	90                   	nop
    430f:	c9                   	leave  
    4310:	c3                   	ret    

0000000000004311 <_ZN3pix4math6signal6window8blackmanIeEEvPT_m>:
    4311:	f3 0f 1e fa          	endbr64 
    4315:	55                   	push   %rbp
    4316:	48 89 e5             	mov    %rsp,%rbp
    4319:	48 83 ec 60          	sub    $0x60,%rsp
    431d:	48 89 7d c8          	mov    %rdi,-0x38(%rbp)
    4321:	48 89 75 c0          	mov    %rsi,-0x40(%rbp)
    4325:	48 83 7d c8 00       	cmpq   $0x0,-0x38(%rbp)
    432a:	75 2b                	jne    4357 <_ZN3pix4math6signal6window8blackmanIeEEvPT_m+0x46>
    432c:	bf 08 00 00 00       	mov    $0x8,%edi
    4331:	e8 fa de ff ff       	call   2230 <__cxa_allocate_exception@plt>
    4336:	48 8d 15 ea 1f 00 00 	lea    0x1fea(%rip),%rdx        # 6327 <_ZL9PHASE_MAX+0x127>
    433d:	48 89 10             	mov    %rdx,(%rax)
    4340:	ba 00 00 00 00       	mov    $0x0,%edx
    4345:	48 8d 0d 74 49 00 00 	lea    0x4974(%rip),%rcx        # 8cc0 <_ZTIPKc@CXXABI_1.3>
    434c:	48 89 ce             	mov    %rcx,%rsi
    434f:	48 89 c7             	mov    %rax,%rdi
    4352:	e8 b9 df ff ff       	call   2310 <__cxa_throw@plt>
    4357:	48 83 7d c0 00       	cmpq   $0x0,-0x40(%rbp)
    435c:	75 2b                	jne    4389 <_ZN3pix4math6signal6window8blackmanIeEEvPT_m+0x78>
    435e:	bf 08 00 00 00       	mov    $0x8,%edi
    4363:	e8 c8 de ff ff       	call   2230 <__cxa_allocate_exception@plt>
    4368:	48 8d 15 d1 1f 00 00 	lea    0x1fd1(%rip),%rdx        # 6340 <_ZL9PHASE_MAX+0x140>
    436f:	48 89 10             	mov    %rdx,(%rax)
    4372:	ba 00 00 00 00       	mov    $0x0,%edx
    4377:	48 8d 0d 42 49 00 00 	lea    0x4942(%rip),%rcx        # 8cc0 <_ZTIPKc@CXXABI_1.3>
    437e:	48 89 ce             	mov    %rcx,%rsi
    4381:	48 89 c7             	mov    %rax,%rdi
    4384:	e8 87 df ff ff       	call   2310 <__cxa_throw@plt>
    4389:	db 2d b1 20 00 00    	fldt   0x20b1(%rip)        # 6440 <_ZL9PHASE_MAX+0x240>
    438f:	db 7d e0             	fstpt  -0x20(%rbp)
    4392:	db 2d 58 21 00 00    	fldt   0x2158(%rip)        # 64f0 <_ZL9PHASE_MAX+0x2f0>
    4398:	db 7d f0             	fstpt  -0x10(%rbp)
    439b:	48 c7 45 d8 00 00 00 	movq   $0x0,-0x28(%rbp)
    43a2:	00 
    43a3:	e9 e1 00 00 00       	jmp    4489 <_ZN3pix4math6signal6window8blackmanIeEEvPT_m+0x178>
    43a8:	df 6d d8             	fildll -0x28(%rbp)
    43ab:	48 83 7d d8 00       	cmpq   $0x0,-0x28(%rbp)
    43b0:	79 08                	jns    43ba <_ZN3pix4math6signal6window8blackmanIeEEvPT_m+0xa9>
    43b2:	db 2d 68 20 00 00    	fldt   0x2068(%rip)        # 6420 <_ZL9PHASE_MAX+0x220>
    43b8:	de c1                	faddp  %st,%st(1)
    43ba:	db 2d 80 20 00 00    	fldt   0x2080(%rip)        # 6440 <_ZL9PHASE_MAX+0x240>
    43c0:	de c9                	fmulp  %st,%st(1)
    43c2:	48 8b 45 c0          	mov    -0x40(%rbp),%rax
    43c6:	48 83 e8 01          	sub    $0x1,%rax
    43ca:	48 89 45 b0          	mov    %rax,-0x50(%rbp)
    43ce:	df 6d b0             	fildll -0x50(%rbp)
    43d1:	48 85 c0             	test   %rax,%rax
    43d4:	79 08                	jns    43de <_ZN3pix4math6signal6window8blackmanIeEEvPT_m+0xcd>
    43d6:	db 2d 44 20 00 00    	fldt   0x2044(%rip)        # 6420 <_ZL9PHASE_MAX+0x220>
    43dc:	de c1                	faddp  %st,%st(1)
    43de:	de f9                	fdivrp %st,%st(1)
    43e0:	48 8d 64 24 f0       	lea    -0x10(%rsp),%rsp
    43e5:	db 3c 24             	fstpt  (%rsp)
    43e8:	e8 35 e9 ff ff       	call   2d22 <_ZN3pix4math4trig3cosEe>
    43ed:	48 83 c4 10          	add    $0x10,%rsp
    43f1:	db 2d 09 21 00 00    	fldt   0x2109(%rip)        # 6500 <_ZL9PHASE_MAX+0x300>
    43f7:	de c9                	fmulp  %st,%st(1)
    43f9:	db 2d 11 21 00 00    	fldt   0x2111(%rip)        # 6510 <_ZL9PHASE_MAX+0x310>
    43ff:	de e1                	fsubp  %st,%st(1)
    4401:	db 7d b0             	fstpt  -0x50(%rbp)
    4404:	df 6d d8             	fildll -0x28(%rbp)
    4407:	48 83 7d d8 00       	cmpq   $0x0,-0x28(%rbp)
    440c:	79 08                	jns    4416 <_ZN3pix4math6signal6window8blackmanIeEEvPT_m+0x105>
    440e:	db 2d 0c 20 00 00    	fldt   0x200c(%rip)        # 6420 <_ZL9PHASE_MAX+0x220>
    4414:	de c1                	faddp  %st,%st(1)
    4416:	db 2d d4 20 00 00    	fldt   0x20d4(%rip)        # 64f0 <_ZL9PHASE_MAX+0x2f0>
    441c:	de c9                	fmulp  %st,%st(1)
    441e:	48 8b 45 c0          	mov    -0x40(%rbp),%rax
    4422:	48 83 e8 01          	sub    $0x1,%rax
    4426:	48 89 45 a8          	mov    %rax,-0x58(%rbp)
    442a:	df 6d a8             	fildll -0x58(%rbp)
    442d:	48 85 c0             	test   %rax,%rax
    4430:	79 08                	jns    443a <_ZN3pix4math6signal6window8blackmanIeEEvPT_m+0x129>
    4432:	db 2d e8 1f 00 00    	fldt   0x1fe8(%rip)        # 6420 <_ZL9PHASE_MAX+0x220>
    4438:	de c1                	faddp  %st,%st(1)
    443a:	de f9                	fdivrp %st,%st(1)
    443c:	48 8d 64 24 f0       	lea    -0x10(%rsp),%rsp
    4441:	db 3c 24             	fstpt  (%rsp)
    4444:	e8 d9 e8 ff ff       	call   2d22 <_ZN3pix4math4trig3cosEe>
    4449:	48 83 c4 10          	add    $0x10,%rsp
    444d:	db 2d cd 20 00 00    	fldt   0x20cd(%rip)        # 6520 <_ZL9PHASE_MAX+0x320>
    4453:	de c9                	fmulp  %st,%st(1)
    4455:	db 6d b0             	fldt   -0x50(%rbp)
    4458:	de c1                	faddp  %st,%st(1)
    445a:	48 8b 45 d8          	mov    -0x28(%rbp),%rax
    445e:	48 c1 e0 04          	shl    $0x4,%rax
    4462:	48 89 c2             	mov    %rax,%rdx
    4465:	48 8b 45 c8          	mov    -0x38(%rbp),%rax
    4469:	48 01 d0             	add    %rdx,%rax
    446c:	db 28                	fldt   (%rax)
    446e:	48 8b 45 d8          	mov    -0x28(%rbp),%rax
    4472:	48 c1 e0 04          	shl    $0x4,%rax
    4476:	48 89 c2             	mov    %rax,%rdx
    4479:	48 8b 45 c8          	mov    -0x38(%rbp),%rax
    447d:	48 01 d0             	add    %rdx,%rax
    4480:	de c9                	fmulp  %st,%st(1)
    4482:	db 38                	fstpt  (%rax)
    4484:	48 83 45 d8 01       	addq   $0x1,-0x28(%rbp)
    4489:	48 8b 45 d8          	mov    -0x28(%rbp),%rax
    448d:	48 3b 45 c0          	cmp    -0x40(%rbp),%rax
    4491:	0f 82 11 ff ff ff    	jb     43a8 <_ZN3pix4math6signal6window8blackmanIeEEvPT_m+0x97>
    4497:	90                   	nop
    4498:	90                   	nop
    4499:	c9                   	leave  
    449a:	c3                   	ret    

000000000000449b <_ZN3pix4math6signal9transform3dftIeEEvPKT_S6_S6_PS4_mm>:
    449b:	f3 0f 1e fa          	endbr64 
    449f:	55                   	push   %rbp
    44a0:	48 89 e5             	mov    %rsp,%rbp
    44a3:	53                   	push   %rbx
    44a4:	48 81 ec a8 00 00 00 	sub    $0xa8,%rsp
    44ab:	48 89 7d 88          	mov    %rdi,-0x78(%rbp)
    44af:	48 89 75 80          	mov    %rsi,-0x80(%rbp)
    44b3:	48 89 95 78 ff ff ff 	mov    %rdx,-0x88(%rbp)
    44ba:	48 89 8d 70 ff ff ff 	mov    %rcx,-0x90(%rbp)
    44c1:	4c 89 85 68 ff ff ff 	mov    %r8,-0x98(%rbp)
    44c8:	4c 89 8d 60 ff ff ff 	mov    %r9,-0xa0(%rbp)
    44cf:	48 83 7d 88 00       	cmpq   $0x0,-0x78(%rbp)
    44d4:	75 2b                	jne    4501 <_ZN3pix4math6signal9transform3dftIeEEvPKT_S6_S6_PS4_mm+0x66>
    44d6:	bf 08 00 00 00       	mov    $0x8,%edi
    44db:	e8 50 dd ff ff       	call   2230 <__cxa_allocate_exception@plt>
    44e0:	48 8d 15 6b 1e 00 00 	lea    0x1e6b(%rip),%rdx        # 6352 <_ZL9PHASE_MAX+0x152>
    44e7:	48 89 10             	mov    %rdx,(%rax)
    44ea:	ba 00 00 00 00       	mov    $0x0,%edx
    44ef:	48 8d 0d ca 47 00 00 	lea    0x47ca(%rip),%rcx        # 8cc0 <_ZTIPKc@CXXABI_1.3>
    44f6:	48 89 ce             	mov    %rcx,%rsi
    44f9:	48 89 c7             	mov    %rax,%rdi
    44fc:	e8 0f de ff ff       	call   2310 <__cxa_throw@plt>
    4501:	48 83 7d 80 00       	cmpq   $0x0,-0x80(%rbp)
    4506:	75 2b                	jne    4533 <_ZN3pix4math6signal9transform3dftIeEEvPKT_S6_S6_PS4_mm+0x98>
    4508:	bf 08 00 00 00       	mov    $0x8,%edi
    450d:	e8 1e dd ff ff       	call   2230 <__cxa_allocate_exception@plt>
    4512:	48 8d 15 57 1e 00 00 	lea    0x1e57(%rip),%rdx        # 6370 <_ZL9PHASE_MAX+0x170>
    4519:	48 89 10             	mov    %rdx,(%rax)
    451c:	ba 00 00 00 00       	mov    $0x0,%edx
    4521:	48 8d 0d 98 47 00 00 	lea    0x4798(%rip),%rcx        # 8cc0 <_ZTIPKc@CXXABI_1.3>
    4528:	48 89 ce             	mov    %rcx,%rsi
    452b:	48 89 c7             	mov    %rax,%rdi
    452e:	e8 dd dd ff ff       	call   2310 <__cxa_throw@plt>
    4533:	48 83 bd 78 ff ff ff 	cmpq   $0x0,-0x88(%rbp)
    453a:	00 
    453b:	75 2b                	jne    4568 <_ZN3pix4math6signal9transform3dftIeEEvPKT_S6_S6_PS4_mm+0xcd>
    453d:	bf 08 00 00 00       	mov    $0x8,%edi
    4542:	e8 e9 dc ff ff       	call   2230 <__cxa_allocate_exception@plt>
    4547:	48 8d 15 42 1e 00 00 	lea    0x1e42(%rip),%rdx        # 6390 <_ZL9PHASE_MAX+0x190>
    454e:	48 89 10             	mov    %rdx,(%rax)
    4551:	ba 00 00 00 00       	mov    $0x0,%edx
    4556:	48 8d 0d 63 47 00 00 	lea    0x4763(%rip),%rcx        # 8cc0 <_ZTIPKc@CXXABI_1.3>
    455d:	48 89 ce             	mov    %rcx,%rsi
    4560:	48 89 c7             	mov    %rax,%rdi
    4563:	e8 a8 dd ff ff       	call   2310 <__cxa_throw@plt>
    4568:	48 83 bd 70 ff ff ff 	cmpq   $0x0,-0x90(%rbp)
    456f:	00 
    4570:	75 2b                	jne    459d <_ZN3pix4math6signal9transform3dftIeEEvPKT_S6_S6_PS4_mm+0x102>
    4572:	bf 08 00 00 00       	mov    $0x8,%edi
    4577:	e8 b4 dc ff ff       	call   2230 <__cxa_allocate_exception@plt>
    457c:	48 8d 15 35 1e 00 00 	lea    0x1e35(%rip),%rdx        # 63b8 <_ZL9PHASE_MAX+0x1b8>
    4583:	48 89 10             	mov    %rdx,(%rax)
    4586:	ba 00 00 00 00       	mov    $0x0,%edx
    458b:	48 8d 0d 2e 47 00 00 	lea    0x472e(%rip),%rcx        # 8cc0 <_ZTIPKc@CXXABI_1.3>
    4592:	48 89 ce             	mov    %rcx,%rsi
    4595:	48 89 c7             	mov    %rax,%rdi
    4598:	e8 73 dd ff ff       	call   2310 <__cxa_throw@plt>
    459d:	48 83 bd 68 ff ff ff 	cmpq   $0x0,-0x98(%rbp)
    45a4:	00 
    45a5:	75 2b                	jne    45d2 <_ZN3pix4math6signal9transform3dftIeEEvPKT_S6_S6_PS4_mm+0x137>
    45a7:	bf 08 00 00 00       	mov    $0x8,%edi
    45ac:	e8 7f dc ff ff       	call   2230 <__cxa_allocate_exception@plt>
    45b1:	48 8d 15 23 1e 00 00 	lea    0x1e23(%rip),%rdx        # 63db <_ZL9PHASE_MAX+0x1db>
    45b8:	48 89 10             	mov    %rdx,(%rax)
    45bb:	ba 00 00 00 00       	mov    $0x0,%edx
    45c0:	48 8d 0d f9 46 00 00 	lea    0x46f9(%rip),%rcx        # 8cc0 <_ZTIPKc@CXXABI_1.3>
    45c7:	48 89 ce             	mov    %rcx,%rsi
    45ca:	48 89 c7             	mov    %rax,%rdi
    45cd:	e8 3e dd ff ff       	call   2310 <__cxa_throw@plt>
    45d2:	48 83 bd 60 ff ff ff 	cmpq   $0x0,-0xa0(%rbp)
    45d9:	00 
    45da:	75 2b                	jne    4607 <_ZN3pix4math6signal9transform3dftIeEEvPKT_S6_S6_PS4_mm+0x16c>
    45dc:	bf 08 00 00 00       	mov    $0x8,%edi
    45e1:	e8 4a dc ff ff       	call   2230 <__cxa_allocate_exception@plt>
    45e6:	48 8d 15 07 1e 00 00 	lea    0x1e07(%rip),%rdx        # 63f4 <_ZL9PHASE_MAX+0x1f4>
    45ed:	48 89 10             	mov    %rdx,(%rax)
    45f0:	ba 00 00 00 00       	mov    $0x0,%edx
    45f5:	48 8d 0d c4 46 00 00 	lea    0x46c4(%rip),%rcx        # 8cc0 <_ZTIPKc@CXXABI_1.3>
    45fc:	48 89 ce             	mov    %rcx,%rsi
    45ff:	48 89 c7             	mov    %rax,%rdi
    4602:	e8 09 dd ff ff       	call   2310 <__cxa_throw@plt>
    4607:	db 2d 33 1e 00 00    	fldt   0x1e33(%rip)        # 6440 <_ZL9PHASE_MAX+0x240>
    460d:	db 7d c0             	fstpt  -0x40(%rbp)
    4610:	48 c7 45 90 00 00 00 	movq   $0x0,-0x70(%rbp)
    4617:	00 
    4618:	e9 29 01 00 00       	jmp    4746 <_ZN3pix4math6signal9transform3dftIeEEvPKT_S6_S6_PS4_mm+0x2ab>
    461d:	48 8b 45 90          	mov    -0x70(%rbp),%rax
    4621:	48 c1 e0 04          	shl    $0x4,%rax
    4625:	48 89 c2             	mov    %rax,%rdx
    4628:	48 8b 85 78 ff ff ff 	mov    -0x88(%rbp),%rax
    462f:	48 01 d0             	add    %rdx,%rax
    4632:	db 28                	fldt   (%rax)
    4634:	db 2d 06 1e 00 00    	fldt   0x1e06(%rip)        # 6440 <_ZL9PHASE_MAX+0x240>
    463a:	de c9                	fmulp  %st,%st(1)
    463c:	db 7d d0             	fstpt  -0x30(%rbp)
    463f:	d9 ee                	fldz   
    4641:	db 7d a0             	fstpt  -0x60(%rbp)
    4644:	d9 ee                	fldz   
    4646:	db 7d b0             	fstpt  -0x50(%rbp)
    4649:	48 c7 45 98 00 00 00 	movq   $0x0,-0x68(%rbp)
    4650:	00 
    4651:	e9 95 00 00 00       	jmp    46eb <_ZN3pix4math6signal9transform3dftIeEEvPKT_S6_S6_PS4_mm+0x250>
    4656:	db 6d d0             	fldt   -0x30(%rbp)
    4659:	d9 e0                	fchs   
    465b:	48 8b 45 98          	mov    -0x68(%rbp),%rax
    465f:	48 c1 e0 04          	shl    $0x4,%rax
    4663:	48 89 c2             	mov    %rax,%rdx
    4666:	48 8b 45 88          	mov    -0x78(%rbp),%rax
    466a:	48 01 d0             	add    %rdx,%rax
    466d:	db 28                	fldt   (%rax)
    466f:	de c9                	fmulp  %st,%st(1)
    4671:	db 7d e0             	fstpt  -0x20(%rbp)
    4674:	48 8b 45 98          	mov    -0x68(%rbp),%rax
    4678:	48 c1 e0 04          	shl    $0x4,%rax
    467c:	48 89 c2             	mov    %rax,%rdx
    467f:	48 8b 45 80          	mov    -0x80(%rbp),%rax
    4683:	48 01 d0             	add    %rdx,%rax
    4686:	db 28                	fldt   (%rax)
    4688:	db bd 50 ff ff ff    	fstpt  -0xb0(%rbp)
    468e:	ff 75 e8             	push   -0x18(%rbp)
    4691:	ff 75 e0             	push   -0x20(%rbp)
    4694:	e8 89 e6 ff ff       	call   2d22 <_ZN3pix4math4trig3cosEe>
    4699:	48 83 c4 10          	add    $0x10,%rsp
    469d:	db ad 50 ff ff ff    	fldt   -0xb0(%rbp)
    46a3:	de c9                	fmulp  %st,%st(1)
    46a5:	db 6d a0             	fldt   -0x60(%rbp)
    46a8:	de c1                	faddp  %st,%st(1)
    46aa:	db 7d a0             	fstpt  -0x60(%rbp)
    46ad:	48 8b 45 98          	mov    -0x68(%rbp),%rax
    46b1:	48 c1 e0 04          	shl    $0x4,%rax
    46b5:	48 89 c2             	mov    %rax,%rdx
    46b8:	48 8b 45 80          	mov    -0x80(%rbp),%rax
    46bc:	48 01 d0             	add    %rdx,%rax
    46bf:	db 28                	fldt   (%rax)
    46c1:	db bd 50 ff ff ff    	fstpt  -0xb0(%rbp)
    46c7:	ff 75 e8             	push   -0x18(%rbp)
    46ca:	ff 75 e0             	push   -0x20(%rbp)
    46cd:	e8 5c e5 ff ff       	call   2c2e <_ZN3pix4math4trig3sinEe>
    46d2:	48 83 c4 10          	add    $0x10,%rsp
    46d6:	db ad 50 ff ff ff    	fldt   -0xb0(%rbp)
    46dc:	de c9                	fmulp  %st,%st(1)
    46de:	db 6d b0             	fldt   -0x50(%rbp)
    46e1:	de c1                	faddp  %st,%st(1)
    46e3:	db 7d b0             	fstpt  -0x50(%rbp)
    46e6:	48 83 45 98 01       	addq   $0x1,-0x68(%rbp)
    46eb:	48 8b 45 98          	mov    -0x68(%rbp),%rax
    46ef:	48 3b 85 68 ff ff ff 	cmp    -0x98(%rbp),%rax
    46f6:	0f 82 5a ff ff ff    	jb     4656 <_ZN3pix4math6signal9transform3dftIeEEvPKT_S6_S6_PS4_mm+0x1bb>
    46fc:	db 6d a0             	fldt   -0x60(%rbp)
    46ff:	d9 c0                	fld    %st(0)
    4701:	de c9                	fmulp  %st,%st(1)
    4703:	db 6d b0             	fldt   -0x50(%rbp)
    4706:	d8 c8                	fmul   %st(0),%st
    4708:	de c1                	faddp  %st,%st(1)
    470a:	48 8b 45 90          	mov    -0x70(%rbp),%rax
    470e:	48 c1 e0 04          	shl    $0x4,%rax
    4712:	48 89 c2             	mov    %rax,%rdx
    4715:	48 8b 85 70 ff ff ff 	mov    -0x90(%rbp),%rax
    471c:	48 8d 1c 02          	lea    (%rdx,%rax,1),%rbx
    4720:	db 2d 0a 1d 00 00    	fldt   0x1d0a(%rip)        # 6430 <_ZL9PHASE_MAX+0x230>
    4726:	48 8d 64 24 f0       	lea    -0x10(%rsp),%rsp
    472b:	db 3c 24             	fstpt  (%rsp)
    472e:	48 8d 64 24 f0       	lea    -0x10(%rsp),%rsp
    4733:	db 3c 24             	fstpt  (%rsp)
    4736:	e8 2f e3 ff ff       	call   2a6a <_ZN3pix4math4rootEee>
    473b:	48 83 c4 20          	add    $0x20,%rsp
    473f:	db 3b                	fstpt  (%rbx)
    4741:	48 83 45 90 01       	addq   $0x1,-0x70(%rbp)
    4746:	48 8b 45 90          	mov    -0x70(%rbp),%rax
    474a:	48 3b 85 60 ff ff ff 	cmp    -0xa0(%rbp),%rax
    4751:	0f 82 c6 fe ff ff    	jb     461d <_ZN3pix4math6signal9transform3dftIeEEvPKT_S6_S6_PS4_mm+0x182>
    4757:	90                   	nop
    4758:	90                   	nop
    4759:	48 8b 5d f8          	mov    -0x8(%rbp),%rbx
    475d:	c9                   	leave  
    475e:	c3                   	ret    

000000000000475f <_ZN3pix6random5drandIeEET_v>:
    475f:	f3 0f 1e fa          	endbr64 
    4763:	55                   	push   %rbp
    4764:	48 89 e5             	mov    %rsp,%rbp
    4767:	48 83 ec 10          	sub    $0x10,%rsp
    476b:	e8 7e f7 ff ff       	call   3eee <_ZN3pix6random4randImEET_v>
    4770:	48 89 45 f8          	mov    %rax,-0x8(%rbp)
    4774:	df 6d f8             	fildll -0x8(%rbp)
    4777:	48 85 c0             	test   %rax,%rax
    477a:	79 08                	jns    4784 <_ZN3pix6random5drandIeEET_v+0x25>
    477c:	db 2d 9e 1c 00 00    	fldt   0x1c9e(%rip)        # 6420 <_ZL9PHASE_MAX+0x220>
    4782:	de c1                	faddp  %st,%st(1)
    4784:	db 2d a6 1d 00 00    	fldt   0x1da6(%rip)        # 6530 <_ZL9PHASE_MAX+0x330>
    478a:	de f9                	fdivrp %st,%st(1)
    478c:	c9                   	leave  
    478d:	c3                   	ret    

000000000000478e <_ZN3pix4math4stat4meanIeEET_PKS3_m>:
    478e:	f3 0f 1e fa          	endbr64 
    4792:	55                   	push   %rbp
    4793:	48 89 e5             	mov    %rsp,%rbp
    4796:	48 83 ec 10          	sub    $0x10,%rsp
    479a:	48 89 7d f8          	mov    %rdi,-0x8(%rbp)
    479e:	48 89 75 f0          	mov    %rsi,-0x10(%rbp)
    47a2:	48 83 7d f8 00       	cmpq   $0x0,-0x8(%rbp)
    47a7:	75 2b                	jne    47d4 <_ZN3pix4math4stat4meanIeEET_PKS3_m+0x46>
    47a9:	bf 08 00 00 00       	mov    $0x8,%edi
    47ae:	e8 7d da ff ff       	call   2230 <__cxa_allocate_exception@plt>
    47b3:	48 8d 15 6d 1b 00 00 	lea    0x1b6d(%rip),%rdx        # 6327 <_ZL9PHASE_MAX+0x127>
    47ba:	48 89 10             	mov    %rdx,(%rax)
    47bd:	ba 00 00 00 00       	mov    $0x0,%edx
    47c2:	48 8d 0d f7 44 00 00 	lea    0x44f7(%rip),%rcx        # 8cc0 <_ZTIPKc@CXXABI_1.3>
    47c9:	48 89 ce             	mov    %rcx,%rsi
    47cc:	48 89 c7             	mov    %rax,%rdi
    47cf:	e8 3c db ff ff       	call   2310 <__cxa_throw@plt>
    47d4:	48 83 7d f0 00       	cmpq   $0x0,-0x10(%rbp)
    47d9:	75 2b                	jne    4806 <_ZN3pix4math4stat4meanIeEET_PKS3_m+0x78>
    47db:	bf 08 00 00 00       	mov    $0x8,%edi
    47e0:	e8 4b da ff ff       	call   2230 <__cxa_allocate_exception@plt>
    47e5:	48 8d 15 54 1b 00 00 	lea    0x1b54(%rip),%rdx        # 6340 <_ZL9PHASE_MAX+0x140>
    47ec:	48 89 10             	mov    %rdx,(%rax)
    47ef:	ba 00 00 00 00       	mov    $0x0,%edx
    47f4:	48 8d 0d c5 44 00 00 	lea    0x44c5(%rip),%rcx        # 8cc0 <_ZTIPKc@CXXABI_1.3>
    47fb:	48 89 ce             	mov    %rcx,%rsi
    47fe:	48 89 c7             	mov    %rax,%rdi
    4801:	e8 0a db ff ff       	call   2310 <__cxa_throw@plt>
    4806:	48 8b 55 f0          	mov    -0x10(%rbp),%rdx
    480a:	48 8b 45 f8          	mov    -0x8(%rbp),%rax
    480e:	48 89 d6             	mov    %rdx,%rsi
    4811:	48 89 c7             	mov    %rax,%rdi
    4814:	e8 e9 00 00 00       	call   4902 <_ZN3pix4math4stat3sumIeEET_PKS3_m>
    4819:	df 6d f0             	fildll -0x10(%rbp)
    481c:	48 83 7d f0 00       	cmpq   $0x0,-0x10(%rbp)
    4821:	79 08                	jns    482b <_ZN3pix4math4stat4meanIeEET_PKS3_m+0x9d>
    4823:	db 2d f7 1b 00 00    	fldt   0x1bf7(%rip)        # 6420 <_ZL9PHASE_MAX+0x220>
    4829:	de c1                	faddp  %st,%st(1)
    482b:	de f9                	fdivrp %st,%st(1)
    482d:	c9                   	leave  
    482e:	c3                   	ret    

000000000000482f <_ZN3pix4math4stat3maxIeEET_PKS3_m>:
    482f:	f3 0f 1e fa          	endbr64 
    4833:	55                   	push   %rbp
    4834:	48 89 e5             	mov    %rsp,%rbp
    4837:	48 83 ec 30          	sub    $0x30,%rsp
    483b:	48 89 7d d8          	mov    %rdi,-0x28(%rbp)
    483f:	48 89 75 d0          	mov    %rsi,-0x30(%rbp)
    4843:	48 83 7d d8 00       	cmpq   $0x0,-0x28(%rbp)
    4848:	75 2b                	jne    4875 <_ZN3pix4math4stat3maxIeEET_PKS3_m+0x46>
    484a:	bf 08 00 00 00       	mov    $0x8,%edi
    484f:	e8 dc d9 ff ff       	call   2230 <__cxa_allocate_exception@plt>
    4854:	48 8d 15 cc 1a 00 00 	lea    0x1acc(%rip),%rdx        # 6327 <_ZL9PHASE_MAX+0x127>
    485b:	48 89 10             	mov    %rdx,(%rax)
    485e:	ba 00 00 00 00       	mov    $0x0,%edx
    4863:	48 8d 0d 56 44 00 00 	lea    0x4456(%rip),%rcx        # 8cc0 <_ZTIPKc@CXXABI_1.3>
    486a:	48 89 ce             	mov    %rcx,%rsi
    486d:	48 89 c7             	mov    %rax,%rdi
    4870:	e8 9b da ff ff       	call   2310 <__cxa_throw@plt>
    4875:	48 83 7d d0 01       	cmpq   $0x1,-0x30(%rbp)
    487a:	77 2b                	ja     48a7 <_ZN3pix4math4stat3maxIeEET_PKS3_m+0x78>
    487c:	bf 08 00 00 00       	mov    $0x8,%edi
    4881:	e8 aa d9 ff ff       	call   2230 <__cxa_allocate_exception@plt>
    4886:	48 8d 15 b3 1a 00 00 	lea    0x1ab3(%rip),%rdx        # 6340 <_ZL9PHASE_MAX+0x140>
    488d:	48 89 10             	mov    %rdx,(%rax)
    4890:	ba 00 00 00 00       	mov    $0x0,%edx
    4895:	48 8d 0d 24 44 00 00 	lea    0x4424(%rip),%rcx        # 8cc0 <_ZTIPKc@CXXABI_1.3>
    489c:	48 89 ce             	mov    %rcx,%rsi
    489f:	48 89 c7             	mov    %rax,%rdi
    48a2:	e8 69 da ff ff       	call   2310 <__cxa_throw@plt>
    48a7:	48 8b 45 d8          	mov    -0x28(%rbp),%rax
    48ab:	db 28                	fldt   (%rax)
    48ad:	db 7d f0             	fstpt  -0x10(%rbp)
    48b0:	48 c7 45 e8 01 00 00 	movq   $0x1,-0x18(%rbp)
    48b7:	00 
    48b8:	eb 39                	jmp    48f3 <_ZN3pix4math4stat3maxIeEET_PKS3_m+0xc4>
    48ba:	48 8b 45 e8          	mov    -0x18(%rbp),%rax
    48be:	48 c1 e0 04          	shl    $0x4,%rax
    48c2:	48 89 c2             	mov    %rax,%rdx
    48c5:	48 8b 45 d8          	mov    -0x28(%rbp),%rax
    48c9:	48 01 d0             	add    %rdx,%rax
    48cc:	db 6d f0             	fldt   -0x10(%rbp)
    48cf:	db 28                	fldt   (%rax)
    48d1:	df f1                	fcomip %st(1),%st
    48d3:	dd d8                	fstp   %st(0)
    48d5:	76 17                	jbe    48ee <_ZN3pix4math4stat3maxIeEET_PKS3_m+0xbf>
    48d7:	48 8b 45 e8          	mov    -0x18(%rbp),%rax
    48db:	48 c1 e0 04          	shl    $0x4,%rax
    48df:	48 89 c2             	mov    %rax,%rdx
    48e2:	48 8b 45 d8          	mov    -0x28(%rbp),%rax
    48e6:	48 01 d0             	add    %rdx,%rax
    48e9:	db 28                	fldt   (%rax)
    48eb:	db 7d f0             	fstpt  -0x10(%rbp)
    48ee:	48 83 45 e8 01       	addq   $0x1,-0x18(%rbp)
    48f3:	48 8b 45 e8          	mov    -0x18(%rbp),%rax
    48f7:	48 3b 45 d0          	cmp    -0x30(%rbp),%rax
    48fb:	72 bd                	jb     48ba <_ZN3pix4math4stat3maxIeEET_PKS3_m+0x8b>
    48fd:	db 6d f0             	fldt   -0x10(%rbp)
    4900:	c9                   	leave  
    4901:	c3                   	ret    

0000000000004902 <_ZN3pix4math4stat3sumIeEET_PKS3_m>:
    4902:	f3 0f 1e fa          	endbr64 
    4906:	55                   	push   %rbp
    4907:	48 89 e5             	mov    %rsp,%rbp
    490a:	48 83 ec 30          	sub    $0x30,%rsp
    490e:	48 89 7d d8          	mov    %rdi,-0x28(%rbp)
    4912:	48 89 75 d0          	mov    %rsi,-0x30(%rbp)
    4916:	48 83 7d d8 00       	cmpq   $0x0,-0x28(%rbp)
    491b:	75 2b                	jne    4948 <_ZN3pix4math4stat3sumIeEET_PKS3_m+0x46>
    491d:	bf 08 00 00 00       	mov    $0x8,%edi
    4922:	e8 09 d9 ff ff       	call   2230 <__cxa_allocate_exception@plt>
    4927:	48 8d 15 f9 19 00 00 	lea    0x19f9(%rip),%rdx        # 6327 <_ZL9PHASE_MAX+0x127>
    492e:	48 89 10             	mov    %rdx,(%rax)
    4931:	ba 00 00 00 00       	mov    $0x0,%edx
    4936:	48 8d 0d 83 43 00 00 	lea    0x4383(%rip),%rcx        # 8cc0 <_ZTIPKc@CXXABI_1.3>
    493d:	48 89 ce             	mov    %rcx,%rsi
    4940:	48 89 c7             	mov    %rax,%rdi
    4943:	e8 c8 d9 ff ff       	call   2310 <__cxa_throw@plt>
    4948:	48 83 7d d0 00       	cmpq   $0x0,-0x30(%rbp)
    494d:	75 2b                	jne    497a <_ZN3pix4math4stat3sumIeEET_PKS3_m+0x78>
    494f:	bf 08 00 00 00       	mov    $0x8,%edi
    4954:	e8 d7 d8 ff ff       	call   2230 <__cxa_allocate_exception@plt>
    4959:	48 8d 15 e0 19 00 00 	lea    0x19e0(%rip),%rdx        # 6340 <_ZL9PHASE_MAX+0x140>
    4960:	48 89 10             	mov    %rdx,(%rax)
    4963:	ba 00 00 00 00       	mov    $0x0,%edx
    4968:	48 8d 0d 51 43 00 00 	lea    0x4351(%rip),%rcx        # 8cc0 <_ZTIPKc@CXXABI_1.3>
    496f:	48 89 ce             	mov    %rcx,%rsi
    4972:	48 89 c7             	mov    %rax,%rdi
    4975:	e8 96 d9 ff ff       	call   2310 <__cxa_throw@plt>
    497a:	d9 ee                	fldz   
    497c:	db 7d f0             	fstpt  -0x10(%rbp)
    497f:	48 c7 45 e8 00 00 00 	movq   $0x0,-0x18(%rbp)
    4986:	00 
    4987:	eb 21                	jmp    49aa <_ZN3pix4math4stat3sumIeEET_PKS3_m+0xa8>
    4989:	48 8b 45 e8          	mov    -0x18(%rbp),%rax
    498d:	48 c1 e0 04          	shl    $0x4,%rax
    4991:	48 89 c2             	mov    %rax,%rdx
    4994:	48 8b 45 d8          	mov    -0x28(%rbp),%rax
    4998:	48 01 d0             	add    %rdx,%rax
    499b:	db 28                	fldt   (%rax)
    499d:	db 6d f0             	fldt   -0x10(%rbp)
    49a0:	de c1                	faddp  %st,%st(1)
    49a2:	db 7d f0             	fstpt  -0x10(%rbp)
    49a5:	48 83 45 e8 01       	addq   $0x1,-0x18(%rbp)
    49aa:	48 8b 45 e8          	mov    -0x18(%rbp),%rax
    49ae:	48 3b 45 d0          	cmp    -0x30(%rbp),%rax
    49b2:	72 d5                	jb     4989 <_ZN3pix4math4stat3sumIeEET_PKS3_m+0x87>
    49b4:	db 6d f0             	fldt   -0x10(%rbp)
    49b7:	c9                   	leave  
    49b8:	c3                   	ret    

00000000000049b9 <_ZN3pix7c_array4swapIeEEvRT_S3_>:
    49b9:	f3 0f 1e fa          	endbr64 
    49bd:	55                   	push   %rbp
    49be:	48 89 e5             	mov    %rsp,%rbp
    49c1:	48 89 7d e8          	mov    %rdi,-0x18(%rbp)
    49c5:	48 89 75 e0          	mov    %rsi,-0x20(%rbp)
    49c9:	48 8b 45 e8          	mov    -0x18(%rbp),%rax
    49cd:	db 28                	fldt   (%rax)
    49cf:	db 7d f0             	fstpt  -0x10(%rbp)
    49d2:	48 8b 45 e0          	mov    -0x20(%rbp),%rax
    49d6:	db 28                	fldt   (%rax)
    49d8:	48 8b 45 e8          	mov    -0x18(%rbp),%rax
    49dc:	db 38                	fstpt  (%rax)
    49de:	48 8b 45 e0          	mov    -0x20(%rbp),%rax
    49e2:	db 6d f0             	fldt   -0x10(%rbp)
    49e5:	db 38                	fstpt  (%rax)
    49e7:	90                   	nop
    49e8:	5d                   	pop    %rbp
    49e9:	c3                   	ret    

00000000000049ea <_ZN5utils5pauseEPKc>:
    49ea:	f3 0f 1e fa          	endbr64 
    49ee:	55                   	push   %rbp
    49ef:	48 89 e5             	mov    %rsp,%rbp
    49f2:	48 83 ec 10          	sub    $0x10,%rsp
    49f6:	48 89 7d f8          	mov    %rdi,-0x8(%rbp)
    49fa:	48 83 7d f8 00       	cmpq   $0x0,-0x8(%rbp)
    49ff:	75 1b                	jne    4a1c <_ZN5utils5pauseEPKc+0x32>
    4a01:	48 8d 05 38 1b 00 00 	lea    0x1b38(%rip),%rax        # 6540 <_ZL9PHASE_MAX+0x340>
    4a08:	48 89 c6             	mov    %rax,%rsi
    4a0b:	48 8d 05 2e 46 00 00 	lea    0x462e(%rip),%rax        # 9040 <_ZSt4cout@GLIBCXX_3.4>
    4a12:	48 89 c7             	mov    %rax,%rdi
    4a15:	e8 46 d8 ff ff       	call   2260 <_ZStlsISt11char_traitsIcEERSt13basic_ostreamIcT_ES5_PKc@plt>
    4a1a:	eb 2b                	jmp    4a47 <_ZN5utils5pauseEPKc+0x5d>
    4a1c:	48 8b 45 f8          	mov    -0x8(%rbp),%rax
    4a20:	48 89 c6             	mov    %rax,%rsi
    4a23:	48 8d 05 16 46 00 00 	lea    0x4616(%rip),%rax        # 9040 <_ZSt4cout@GLIBCXX_3.4>
    4a2a:	48 89 c7             	mov    %rax,%rdi
    4a2d:	e8 2e d8 ff ff       	call   2260 <_ZStlsISt11char_traitsIcEERSt13basic_ostreamIcT_ES5_PKc@plt>
    4a32:	48 89 c2             	mov    %rax,%rdx
    4a35:	48 8d 05 20 1b 00 00 	lea    0x1b20(%rip),%rax        # 655c <_ZL9PHASE_MAX+0x35c>
    4a3c:	48 89 c6             	mov    %rax,%rsi
    4a3f:	48 89 d7             	mov    %rdx,%rdi
    4a42:	e8 19 d8 ff ff       	call   2260 <_ZStlsISt11char_traitsIcEERSt13basic_ostreamIcT_ES5_PKc@plt>
    4a47:	48 8d 05 12 47 00 00 	lea    0x4712(%rip),%rax        # 9160 <_ZSt3cin@GLIBCXX_3.4>
    4a4e:	48 89 c7             	mov    %rax,%rdi
    4a51:	e8 4a d8 ff ff       	call   22a0 <_ZNSi3getEv@plt>
    4a56:	90                   	nop
    4a57:	c9                   	leave  
    4a58:	c3                   	ret    

0000000000004a59 <_ZN5utils5clearEv>:
    4a59:	f3 0f 1e fa          	endbr64 
    4a5d:	55                   	push   %rbp
    4a5e:	48 89 e5             	mov    %rsp,%rbp
    4a61:	48 8d 05 f8 1a 00 00 	lea    0x1af8(%rip),%rax        # 6560 <_ZL9PHASE_MAX+0x360>
    4a68:	48 89 c7             	mov    %rax,%rdi
    4a6b:	e8 d0 d7 ff ff       	call   2240 <system@plt>
    4a70:	90                   	nop
    4a71:	5d                   	pop    %rbp
    4a72:	c3                   	ret    

0000000000004a73 <_ZN5utils5parseEiPPc>:
    4a73:	f3 0f 1e fa          	endbr64 
    4a77:	55                   	push   %rbp
    4a78:	48 89 e5             	mov    %rsp,%rbp
    4a7b:	48 83 ec 20          	sub    $0x20,%rsp
    4a7f:	89 7d ec             	mov    %edi,-0x14(%rbp)
    4a82:	48 89 75 e0          	mov    %rsi,-0x20(%rbp)
    4a86:	48 8d 05 d9 1a 00 00 	lea    0x1ad9(%rip),%rax        # 6566 <_ZL9PHASE_MAX+0x366>
    4a8d:	48 89 c6             	mov    %rax,%rsi
    4a90:	48 8d 05 a9 45 00 00 	lea    0x45a9(%rip),%rax        # 9040 <_ZSt4cout@GLIBCXX_3.4>
    4a97:	48 89 c7             	mov    %rax,%rdi
    4a9a:	e8 c1 d7 ff ff       	call   2260 <_ZStlsISt11char_traitsIcEERSt13basic_ostreamIcT_ES5_PKc@plt>
    4a9f:	be 0a 00 00 00       	mov    $0xa,%esi
    4aa4:	48 89 c7             	mov    %rax,%rdi
    4aa7:	e8 e4 d7 ff ff       	call   2290 <_ZStlsISt11char_traitsIcEERSt13basic_ostreamIcT_ES5_c@plt>
    4aac:	48 c7 45 f8 00 00 00 	movq   $0x0,-0x8(%rbp)
    4ab3:	00 
    4ab4:	eb 4a                	jmp    4b00 <_ZN5utils5parseEiPPc+0x8d>
    4ab6:	be 09 00 00 00       	mov    $0x9,%esi
    4abb:	48 8d 05 7e 45 00 00 	lea    0x457e(%rip),%rax        # 9040 <_ZSt4cout@GLIBCXX_3.4>
    4ac2:	48 89 c7             	mov    %rax,%rdi
    4ac5:	e8 c6 d7 ff ff       	call   2290 <_ZStlsISt11char_traitsIcEERSt13basic_ostreamIcT_ES5_c@plt>
    4aca:	48 89 c2             	mov    %rax,%rdx
    4acd:	48 8b 45 f8          	mov    -0x8(%rbp),%rax
    4ad1:	48 8d 0c c5 00 00 00 	lea    0x0(,%rax,8),%rcx
    4ad8:	00 
    4ad9:	48 8b 45 e0          	mov    -0x20(%rbp),%rax
    4add:	48 01 c8             	add    %rcx,%rax
    4ae0:	48 8b 00             	mov    (%rax),%rax
    4ae3:	48 89 c6             	mov    %rax,%rsi
    4ae6:	48 89 d7             	mov    %rdx,%rdi
    4ae9:	e8 72 d7 ff ff       	call   2260 <_ZStlsISt11char_traitsIcEERSt13basic_ostreamIcT_ES5_PKc@plt>
    4aee:	be 0a 00 00 00       	mov    $0xa,%esi
    4af3:	48 89 c7             	mov    %rax,%rdi
    4af6:	e8 95 d7 ff ff       	call   2290 <_ZStlsISt11char_traitsIcEERSt13basic_ostreamIcT_ES5_c@plt>
    4afb:	48 83 45 f8 01       	addq   $0x1,-0x8(%rbp)
    4b00:	8b 45 ec             	mov    -0x14(%rbp),%eax
    4b03:	48 98                	cltq   
    4b05:	48 39 45 f8          	cmp    %rax,-0x8(%rbp)
    4b09:	72 ab                	jb     4ab6 <_ZN5utils5parseEiPPc+0x43>
    4b0b:	be 0a 00 00 00       	mov    $0xa,%esi
    4b10:	48 8d 05 29 45 00 00 	lea    0x4529(%rip),%rax        # 9040 <_ZSt4cout@GLIBCXX_3.4>
    4b17:	48 89 c7             	mov    %rax,%rdi
    4b1a:	e8 71 d7 ff ff       	call   2290 <_ZStlsISt11char_traitsIcEERSt13basic_ostreamIcT_ES5_c@plt>
    4b1f:	90                   	nop
    4b20:	c9                   	leave  
    4b21:	c3                   	ret    

0000000000004b22 <_ZN5utils10print_fileEPc>:
    4b22:	f3 0f 1e fa          	endbr64 
    4b26:	55                   	push   %rbp
    4b27:	48 89 e5             	mov    %rsp,%rbp
    4b2a:	53                   	push   %rbx
    4b2b:	48 81 ec 28 02 00 00 	sub    $0x228,%rsp
    4b32:	48 89 bd d8 fd ff ff 	mov    %rdi,-0x228(%rbp)
    4b39:	64 48 8b 04 25 28 00 	mov    %fs:0x28,%rax
    4b40:	00 00 
    4b42:	48 89 45 e8          	mov    %rax,-0x18(%rbp)
    4b46:	31 c0                	xor    %eax,%eax
    4b48:	48 8b 8d d8 fd ff ff 	mov    -0x228(%rbp),%rcx
    4b4f:	48 8d 85 e0 fd ff ff 	lea    -0x220(%rbp),%rax
    4b56:	ba 04 00 00 00       	mov    $0x4,%edx
    4b5b:	48 89 ce             	mov    %rcx,%rsi
    4b5e:	48 89 c7             	mov    %rax,%rdi
    4b61:	e8 da d7 ff ff       	call   2340 <_ZNSt14basic_ifstreamIcSt11char_traitsIcEEC1EPKcSt13_Ios_Openmode@plt>
    4b66:	48 8d 85 e0 fd ff ff 	lea    -0x220(%rbp),%rax
    4b6d:	48 89 c7             	mov    %rax,%rdi
    4b70:	e8 6b d7 ff ff       	call   22e0 <_ZNSt14basic_ifstreamIcSt11char_traitsIcEE7is_openEv@plt>
    4b75:	0f b6 c0             	movzbl %al,%eax
    4b78:	85 c0                	test   %eax,%eax
    4b7a:	0f 94 c0             	sete   %al
    4b7d:	84 c0                	test   %al,%al
    4b7f:	74 4d                	je     4bce <_ZN5utils10print_fileEPc+0xac>
    4b81:	48 8d 05 e9 19 00 00 	lea    0x19e9(%rip),%rax        # 6571 <_ZL9PHASE_MAX+0x371>
    4b88:	48 89 c6             	mov    %rax,%rsi
    4b8b:	48 8d 05 ae 44 00 00 	lea    0x44ae(%rip),%rax        # 9040 <_ZSt4cout@GLIBCXX_3.4>
    4b92:	48 89 c7             	mov    %rax,%rdi
    4b95:	e8 c6 d6 ff ff       	call   2260 <_ZStlsISt11char_traitsIcEERSt13basic_ostreamIcT_ES5_PKc@plt>
    4b9a:	48 89 c2             	mov    %rax,%rdx
    4b9d:	48 8b 85 d8 fd ff ff 	mov    -0x228(%rbp),%rax
    4ba4:	48 89 c6             	mov    %rax,%rsi
    4ba7:	48 89 d7             	mov    %rdx,%rdi
    4baa:	e8 b1 d6 ff ff       	call   2260 <_ZStlsISt11char_traitsIcEERSt13basic_ostreamIcT_ES5_PKc@plt>
    4baf:	48 89 c2             	mov    %rax,%rdx
    4bb2:	48 8d 05 be 19 00 00 	lea    0x19be(%rip),%rax        # 6577 <_ZL9PHASE_MAX+0x377>
    4bb9:	48 89 c6             	mov    %rax,%rsi
    4bbc:	48 89 d7             	mov    %rdx,%rdi
    4bbf:	e8 9c d6 ff ff       	call   2260 <_ZStlsISt11char_traitsIcEERSt13basic_ostreamIcT_ES5_PKc@plt>
    4bc4:	bb 00 00 00 00       	mov    $0x0,%ebx
    4bc9:	e9 cf 00 00 00       	jmp    4c9d <_ZN5utils10print_fileEPc+0x17b>
    4bce:	48 8d 85 e0 fd ff ff 	lea    -0x220(%rbp),%rax
    4bd5:	48 05 00 01 00 00    	add    $0x100,%rax
    4bdb:	48 89 c7             	mov    %rax,%rdi
    4bde:	e8 0d d7 ff ff       	call   22f0 <_ZNKSt9basic_iosIcSt11char_traitsIcEE4goodEv@plt>
    4be3:	0f b6 c0             	movzbl %al,%eax
    4be6:	85 c0                	test   %eax,%eax
    4be8:	0f 94 c0             	sete   %al
    4beb:	84 c0                	test   %al,%al
    4bed:	74 6d                	je     4c5c <_ZN5utils10print_fileEPc+0x13a>
    4bef:	48 8d 05 7b 19 00 00 	lea    0x197b(%rip),%rax        # 6571 <_ZL9PHASE_MAX+0x371>
    4bf6:	48 89 c6             	mov    %rax,%rsi
    4bf9:	48 8d 05 40 44 00 00 	lea    0x4440(%rip),%rax        # 9040 <_ZSt4cout@GLIBCXX_3.4>
    4c00:	48 89 c7             	mov    %rax,%rdi
    4c03:	e8 58 d6 ff ff       	call   2260 <_ZStlsISt11char_traitsIcEERSt13basic_ostreamIcT_ES5_PKc@plt>
    4c08:	48 89 c2             	mov    %rax,%rdx
    4c0b:	48 8b 85 d8 fd ff ff 	mov    -0x228(%rbp),%rax
    4c12:	48 89 c6             	mov    %rax,%rsi
    4c15:	48 89 d7             	mov    %rdx,%rdi
    4c18:	e8 43 d6 ff ff       	call   2260 <_ZStlsISt11char_traitsIcEERSt13basic_ostreamIcT_ES5_PKc@plt>
    4c1d:	48 89 c2             	mov    %rax,%rdx
    4c20:	48 8d 05 5e 19 00 00 	lea    0x195e(%rip),%rax        # 6585 <_ZL9PHASE_MAX+0x385>
    4c27:	48 89 c6             	mov    %rax,%rsi
    4c2a:	48 89 d7             	mov    %rdx,%rdi
    4c2d:	e8 2e d6 ff ff       	call   2260 <_ZStlsISt11char_traitsIcEERSt13basic_ostreamIcT_ES5_PKc@plt>
    4c32:	bb 00 00 00 00       	mov    $0x0,%ebx
    4c37:	eb 64                	jmp    4c9d <_ZN5utils10print_fileEPc+0x17b>
    4c39:	48 8d 85 e0 fd ff ff 	lea    -0x220(%rbp),%rax
    4c40:	48 89 c7             	mov    %rax,%rdi
    4c43:	e8 58 d6 ff ff       	call   22a0 <_ZNSi3getEv@plt>
    4c48:	0f be c0             	movsbl %al,%eax
    4c4b:	89 c6                	mov    %eax,%esi
    4c4d:	48 8d 05 ec 43 00 00 	lea    0x43ec(%rip),%rax        # 9040 <_ZSt4cout@GLIBCXX_3.4>
    4c54:	48 89 c7             	mov    %rax,%rdi
    4c57:	e8 34 d6 ff ff       	call   2290 <_ZStlsISt11char_traitsIcEERSt13basic_ostreamIcT_ES5_c@plt>
    4c5c:	48 8d 85 e0 fd ff ff 	lea    -0x220(%rbp),%rax
    4c63:	48 89 c7             	mov    %rax,%rdi
    4c66:	e8 b5 d5 ff ff       	call   2220 <_ZNSi4peekEv@plt>
    4c6b:	83 f8 ff             	cmp    $0xffffffff,%eax
    4c6e:	0f 95 c0             	setne  %al
    4c71:	84 c0                	test   %al,%al
    4c73:	75 c4                	jne    4c39 <_ZN5utils10print_fileEPc+0x117>
    4c75:	48 8d 85 e0 fd ff ff 	lea    -0x220(%rbp),%rax
    4c7c:	48 89 c7             	mov    %rax,%rdi
    4c7f:	e8 5c d5 ff ff       	call   21e0 <_ZNSt14basic_ifstreamIcSt11char_traitsIcEE5closeEv@plt>
    4c84:	be 0a 00 00 00       	mov    $0xa,%esi
    4c89:	48 8d 05 b0 43 00 00 	lea    0x43b0(%rip),%rax        # 9040 <_ZSt4cout@GLIBCXX_3.4>
    4c90:	48 89 c7             	mov    %rax,%rdi
    4c93:	e8 f8 d5 ff ff       	call   2290 <_ZStlsISt11char_traitsIcEERSt13basic_ostreamIcT_ES5_c@plt>
    4c98:	bb 01 00 00 00       	mov    $0x1,%ebx
    4c9d:	48 8d 85 e0 fd ff ff 	lea    -0x220(%rbp),%rax
    4ca4:	48 89 c7             	mov    %rax,%rdi
    4ca7:	e8 54 d5 ff ff       	call   2200 <_ZNSt14basic_ifstreamIcSt11char_traitsIcEED1Ev@plt>
    4cac:	83 fb 01             	cmp    $0x1,%ebx
    4caf:	48 8b 45 e8          	mov    -0x18(%rbp),%rax
    4cb3:	64 48 2b 04 25 28 00 	sub    %fs:0x28,%rax
    4cba:	00 00 
    4cbc:	74 05                	je     4cc3 <_ZN5utils10print_fileEPc+0x1a1>
    4cbe:	e8 ad d5 ff ff       	call   2270 <__stack_chk_fail@plt>
    4cc3:	48 8b 5d f8          	mov    -0x8(%rbp),%rbx
    4cc7:	c9                   	leave  
    4cc8:	c3                   	ret    

0000000000004cc9 <_ZN5utils14print_file_hexEPc>:
    4cc9:	f3 0f 1e fa          	endbr64 
    4ccd:	55                   	push   %rbp
    4cce:	48 89 e5             	mov    %rsp,%rbp
    4cd1:	53                   	push   %rbx
    4cd2:	48 81 ec 38 02 00 00 	sub    $0x238,%rsp
    4cd9:	48 89 bd c8 fd ff ff 	mov    %rdi,-0x238(%rbp)
    4ce0:	64 48 8b 04 25 28 00 	mov    %fs:0x28,%rax
    4ce7:	00 00 
    4ce9:	48 89 45 e8          	mov    %rax,-0x18(%rbp)
    4ced:	31 c0                	xor    %eax,%eax
    4cef:	48 8b 8d c8 fd ff ff 	mov    -0x238(%rbp),%rcx
    4cf6:	48 8d 85 e0 fd ff ff 	lea    -0x220(%rbp),%rax
    4cfd:	ba 04 00 00 00       	mov    $0x4,%edx
    4d02:	48 89 ce             	mov    %rcx,%rsi
    4d05:	48 89 c7             	mov    %rax,%rdi
    4d08:	e8 33 d6 ff ff       	call   2340 <_ZNSt14basic_ifstreamIcSt11char_traitsIcEEC1EPKcSt13_Ios_Openmode@plt>
    4d0d:	48 8d 85 e0 fd ff ff 	lea    -0x220(%rbp),%rax
    4d14:	48 89 c7             	mov    %rax,%rdi
    4d17:	e8 c4 d5 ff ff       	call   22e0 <_ZNSt14basic_ifstreamIcSt11char_traitsIcEE7is_openEv@plt>
    4d1c:	0f b6 c0             	movzbl %al,%eax
    4d1f:	85 c0                	test   %eax,%eax
    4d21:	0f 94 c0             	sete   %al
    4d24:	84 c0                	test   %al,%al
    4d26:	74 4d                	je     4d75 <_ZN5utils14print_file_hexEPc+0xac>
    4d28:	48 8d 05 42 18 00 00 	lea    0x1842(%rip),%rax        # 6571 <_ZL9PHASE_MAX+0x371>
    4d2f:	48 89 c6             	mov    %rax,%rsi
    4d32:	48 8d 05 07 43 00 00 	lea    0x4307(%rip),%rax        # 9040 <_ZSt4cout@GLIBCXX_3.4>
    4d39:	48 89 c7             	mov    %rax,%rdi
    4d3c:	e8 1f d5 ff ff       	call   2260 <_ZStlsISt11char_traitsIcEERSt13basic_ostreamIcT_ES5_PKc@plt>
    4d41:	48 89 c2             	mov    %rax,%rdx
    4d44:	48 8b 85 c8 fd ff ff 	mov    -0x238(%rbp),%rax
    4d4b:	48 89 c6             	mov    %rax,%rsi
    4d4e:	48 89 d7             	mov    %rdx,%rdi
    4d51:	e8 0a d5 ff ff       	call   2260 <_ZStlsISt11char_traitsIcEERSt13basic_ostreamIcT_ES5_PKc@plt>
    4d56:	48 89 c2             	mov    %rax,%rdx
    4d59:	48 8d 05 17 18 00 00 	lea    0x1817(%rip),%rax        # 6577 <_ZL9PHASE_MAX+0x377>
    4d60:	48 89 c6             	mov    %rax,%rsi
    4d63:	48 89 d7             	mov    %rdx,%rdi
    4d66:	e8 f5 d4 ff ff       	call   2260 <_ZStlsISt11char_traitsIcEERSt13basic_ostreamIcT_ES5_PKc@plt>
    4d6b:	bb 00 00 00 00       	mov    $0x0,%ebx
    4d70:	e9 94 01 00 00       	jmp    4f09 <_ZN5utils14print_file_hexEPc+0x240>
    4d75:	48 8d 85 e0 fd ff ff 	lea    -0x220(%rbp),%rax
    4d7c:	48 05 00 01 00 00    	add    $0x100,%rax
    4d82:	48 89 c7             	mov    %rax,%rdi
    4d85:	e8 66 d5 ff ff       	call   22f0 <_ZNKSt9basic_iosIcSt11char_traitsIcEE4goodEv@plt>
    4d8a:	0f b6 c0             	movzbl %al,%eax
    4d8d:	85 c0                	test   %eax,%eax
    4d8f:	0f 94 c0             	sete   %al
    4d92:	84 c0                	test   %al,%al
    4d94:	74 4d                	je     4de3 <_ZN5utils14print_file_hexEPc+0x11a>
    4d96:	48 8d 05 d4 17 00 00 	lea    0x17d4(%rip),%rax        # 6571 <_ZL9PHASE_MAX+0x371>
    4d9d:	48 89 c6             	mov    %rax,%rsi
    4da0:	48 8d 05 99 42 00 00 	lea    0x4299(%rip),%rax        # 9040 <_ZSt4cout@GLIBCXX_3.4>
    4da7:	48 89 c7             	mov    %rax,%rdi
    4daa:	e8 b1 d4 ff ff       	call   2260 <_ZStlsISt11char_traitsIcEERSt13basic_ostreamIcT_ES5_PKc@plt>
    4daf:	48 89 c2             	mov    %rax,%rdx
    4db2:	48 8b 85 c8 fd ff ff 	mov    -0x238(%rbp),%rax
    4db9:	48 89 c6             	mov    %rax,%rsi
    4dbc:	48 89 d7             	mov    %rdx,%rdi
    4dbf:	e8 9c d4 ff ff       	call   2260 <_ZStlsISt11char_traitsIcEERSt13basic_ostreamIcT_ES5_PKc@plt>
    4dc4:	48 89 c2             	mov    %rax,%rdx
    4dc7:	48 8d 05 b7 17 00 00 	lea    0x17b7(%rip),%rax        # 6585 <_ZL9PHASE_MAX+0x385>
    4dce:	48 89 c6             	mov    %rax,%rsi
    4dd1:	48 89 d7             	mov    %rdx,%rdi
    4dd4:	e8 87 d4 ff ff       	call   2260 <_ZStlsISt11char_traitsIcEERSt13basic_ostreamIcT_ES5_PKc@plt>
    4dd9:	bb 00 00 00 00       	mov    $0x0,%ebx
    4dde:	e9 26 01 00 00       	jmp    4f09 <_ZN5utils14print_file_hexEPc+0x240>
    4de3:	48 8d 05 ec 02 00 00 	lea    0x2ec(%rip),%rax        # 50d6 <_ZSt3hexRSt8ios_base>
    4dea:	48 89 c6             	mov    %rax,%rsi
    4ded:	48 8d 05 4c 42 00 00 	lea    0x424c(%rip),%rax        # 9040 <_ZSt4cout@GLIBCXX_3.4>
    4df4:	48 89 c7             	mov    %rax,%rdi
    4df7:	e8 14 d4 ff ff       	call   2210 <_ZNSolsEPFRSt8ios_baseS0_E@plt>
    4dfc:	48 c7 85 d8 fd ff ff 	movq   $0x0,-0x228(%rbp)
    4e03:	00 00 00 00 
    4e07:	e9 96 00 00 00       	jmp    4ea2 <_ZN5utils14print_file_hexEPc+0x1d9>
    4e0c:	48 8b 85 d8 fd ff ff 	mov    -0x228(%rbp),%rax
    4e13:	83 e0 0f             	and    $0xf,%eax
    4e16:	48 85 c0             	test   %rax,%rax
    4e19:	75 2e                	jne    4e49 <_ZN5utils14print_file_hexEPc+0x180>
    4e1b:	48 8b 85 d8 fd ff ff 	mov    -0x228(%rbp),%rax
    4e22:	48 89 c6             	mov    %rax,%rsi
    4e25:	48 8d 05 14 42 00 00 	lea    0x4214(%rip),%rax        # 9040 <_ZSt4cout@GLIBCXX_3.4>
    4e2c:	48 89 c7             	mov    %rax,%rdi
    4e2f:	e8 bc d3 ff ff       	call   21f0 <_ZNSolsEm@plt>
    4e34:	48 89 c2             	mov    %rax,%rdx
    4e37:	48 8d 05 55 17 00 00 	lea    0x1755(%rip),%rax        # 6593 <_ZL9PHASE_MAX+0x393>
    4e3e:	48 89 c6             	mov    %rax,%rsi
    4e41:	48 89 d7             	mov    %rdx,%rdi
    4e44:	e8 17 d4 ff ff       	call   2260 <_ZStlsISt11char_traitsIcEERSt13basic_ostreamIcT_ES5_PKc@plt>
    4e49:	48 8d 85 e0 fd ff ff 	lea    -0x220(%rbp),%rax
    4e50:	48 89 c7             	mov    %rax,%rdi
    4e53:	e8 48 d4 ff ff       	call   22a0 <_ZNSi3getEv@plt>
    4e58:	89 c6                	mov    %eax,%esi
    4e5a:	48 8d 05 df 41 00 00 	lea    0x41df(%rip),%rax        # 9040 <_ZSt4cout@GLIBCXX_3.4>
    4e61:	48 89 c7             	mov    %rax,%rdi
    4e64:	e8 b7 d4 ff ff       	call   2320 <_ZNSolsEi@plt>
    4e69:	be 20 00 00 00       	mov    $0x20,%esi
    4e6e:	48 89 c7             	mov    %rax,%rdi
    4e71:	e8 1a d4 ff ff       	call   2290 <_ZStlsISt11char_traitsIcEERSt13basic_ostreamIcT_ES5_c@plt>
    4e76:	48 8b 85 d8 fd ff ff 	mov    -0x228(%rbp),%rax
    4e7d:	83 e0 0f             	and    $0xf,%eax
    4e80:	48 83 f8 0f          	cmp    $0xf,%rax
    4e84:	75 14                	jne    4e9a <_ZN5utils14print_file_hexEPc+0x1d1>
    4e86:	be 0a 00 00 00       	mov    $0xa,%esi
    4e8b:	48 8d 05 ae 41 00 00 	lea    0x41ae(%rip),%rax        # 9040 <_ZSt4cout@GLIBCXX_3.4>
    4e92:	48 89 c7             	mov    %rax,%rdi
    4e95:	e8 f6 d3 ff ff       	call   2290 <_ZStlsISt11char_traitsIcEERSt13basic_ostreamIcT_ES5_c@plt>
    4e9a:	48 83 85 d8 fd ff ff 	addq   $0x1,-0x228(%rbp)
    4ea1:	01 
    4ea2:	48 8d 85 e0 fd ff ff 	lea    -0x220(%rbp),%rax
    4ea9:	48 05 00 01 00 00    	add    $0x100,%rax
    4eaf:	48 89 c7             	mov    %rax,%rdi
    4eb2:	e8 99 d4 ff ff       	call   2350 <_ZNKSt9basic_iosIcSt11char_traitsIcEE3eofEv@plt>
    4eb7:	0f b6 c0             	movzbl %al,%eax
    4eba:	85 c0                	test   %eax,%eax
    4ebc:	0f 94 c0             	sete   %al
    4ebf:	84 c0                	test   %al,%al
    4ec1:	0f 85 45 ff ff ff    	jne    4e0c <_ZN5utils14print_file_hexEPc+0x143>
    4ec7:	48 8d 85 e0 fd ff ff 	lea    -0x220(%rbp),%rax
    4ece:	48 89 c7             	mov    %rax,%rdi
    4ed1:	e8 0a d3 ff ff       	call   21e0 <_ZNSt14basic_ifstreamIcSt11char_traitsIcEE5closeEv@plt>
    4ed6:	48 8d 05 cd 01 00 00 	lea    0x1cd(%rip),%rax        # 50aa <_ZSt3decRSt8ios_base>
    4edd:	48 89 c6             	mov    %rax,%rsi
    4ee0:	48 8d 05 59 41 00 00 	lea    0x4159(%rip),%rax        # 9040 <_ZSt4cout@GLIBCXX_3.4>
    4ee7:	48 89 c7             	mov    %rax,%rdi
    4eea:	e8 21 d3 ff ff       	call   2210 <_ZNSolsEPFRSt8ios_baseS0_E@plt>
    4eef:	48 89 c2             	mov    %rax,%rdx
    4ef2:	48 8d 05 9e 16 00 00 	lea    0x169e(%rip),%rax        # 6597 <_ZL9PHASE_MAX+0x397>
    4ef9:	48 89 c6             	mov    %rax,%rsi
    4efc:	48 89 d7             	mov    %rdx,%rdi
    4eff:	e8 5c d3 ff ff       	call   2260 <_ZStlsISt11char_traitsIcEERSt13basic_ostreamIcT_ES5_PKc@plt>
    4f04:	bb 01 00 00 00       	mov    $0x1,%ebx
    4f09:	48 8d 85 e0 fd ff ff 	lea    -0x220(%rbp),%rax
    4f10:	48 89 c7             	mov    %rax,%rdi
    4f13:	e8 e8 d2 ff ff       	call   2200 <_ZNSt14basic_ifstreamIcSt11char_traitsIcEED1Ev@plt>
    4f18:	83 fb 01             	cmp    $0x1,%ebx
    4f1b:	48 8b 45 e8          	mov    -0x18(%rbp),%rax
    4f1f:	64 48 2b 04 25 28 00 	sub    %fs:0x28,%rax
    4f26:	00 00 
    4f28:	74 05                	je     4f2f <_ZN5utils14print_file_hexEPc+0x266>
    4f2a:	e8 41 d3 ff ff       	call   2270 <__stack_chk_fail@plt>
    4f2f:	48 8b 5d f8          	mov    -0x8(%rbp),%rbx
    4f33:	c9                   	leave  
    4f34:	c3                   	ret    

0000000000004f35 <_Z41__static_initialization_and_destruction_0ii>:
    4f35:	f3 0f 1e fa          	endbr64 
    4f39:	55                   	push   %rbp
    4f3a:	48 89 e5             	mov    %rsp,%rbp
    4f3d:	48 83 ec 10          	sub    $0x10,%rsp
    4f41:	89 7d fc             	mov    %edi,-0x4(%rbp)
    4f44:	89 75 f8             	mov    %esi,-0x8(%rbp)
    4f47:	83 7d fc 01          	cmpl   $0x1,-0x4(%rbp)
    4f4b:	75 3b                	jne    4f88 <_Z41__static_initialization_and_destruction_0ii+0x53>
    4f4d:	81 7d f8 ff ff 00 00 	cmpl   $0xffff,-0x8(%rbp)
    4f54:	75 32                	jne    4f88 <_Z41__static_initialization_and_destruction_0ii+0x53>
    4f56:	48 8d 05 1d 43 00 00 	lea    0x431d(%rip),%rax        # 927a <_ZStL8__ioinit>
    4f5d:	48 89 c7             	mov    %rax,%rdi
    4f60:	e8 6b d3 ff ff       	call   22d0 <_ZNSt8ios_base4InitC1Ev@plt>
    4f65:	48 8d 05 9c 40 00 00 	lea    0x409c(%rip),%rax        # 9008 <__dso_handle>
    4f6c:	48 89 c2             	mov    %rax,%rdx
    4f6f:	48 8d 05 04 43 00 00 	lea    0x4304(%rip),%rax        # 927a <_ZStL8__ioinit>
    4f76:	48 89 c6             	mov    %rax,%rsi
    4f79:	48 8b 05 78 40 00 00 	mov    0x4078(%rip),%rax        # 8ff8 <_ZNSt8ios_base4InitD1Ev@GLIBCXX_3.4>
    4f80:	48 89 c7             	mov    %rax,%rdi
    4f83:	e8 c8 d2 ff ff       	call   2250 <__cxa_atexit@plt>
    4f88:	90                   	nop
    4f89:	c9                   	leave  
    4f8a:	c3                   	ret    

0000000000004f8b <_GLOBAL__sub_I__ZN5utils5pauseEPKc>:
    4f8b:	f3 0f 1e fa          	endbr64 
    4f8f:	55                   	push   %rbp
    4f90:	48 89 e5             	mov    %rsp,%rbp
    4f93:	be ff ff 00 00       	mov    $0xffff,%esi
    4f98:	bf 01 00 00 00       	mov    $0x1,%edi
    4f9d:	e8 93 ff ff ff       	call   4f35 <_Z41__static_initialization_and_destruction_0ii>
    4fa2:	5d                   	pop    %rbp
    4fa3:	c3                   	ret    

0000000000004fa4 <_ZStanSt13_Ios_FmtflagsS_>:
    4fa4:	f3 0f 1e fa          	endbr64 
    4fa8:	55                   	push   %rbp
    4fa9:	48 89 e5             	mov    %rsp,%rbp
    4fac:	89 7d fc             	mov    %edi,-0x4(%rbp)
    4faf:	89 75 f8             	mov    %esi,-0x8(%rbp)
    4fb2:	8b 45 fc             	mov    -0x4(%rbp),%eax
    4fb5:	23 45 f8             	and    -0x8(%rbp),%eax
    4fb8:	5d                   	pop    %rbp
    4fb9:	c3                   	ret    

0000000000004fba <_ZStorSt13_Ios_FmtflagsS_>:
    4fba:	f3 0f 1e fa          	endbr64 
    4fbe:	55                   	push   %rbp
    4fbf:	48 89 e5             	mov    %rsp,%rbp
    4fc2:	89 7d fc             	mov    %edi,-0x4(%rbp)
    4fc5:	89 75 f8             	mov    %esi,-0x8(%rbp)
    4fc8:	8b 45 fc             	mov    -0x4(%rbp),%eax
    4fcb:	0b 45 f8             	or     -0x8(%rbp),%eax
    4fce:	5d                   	pop    %rbp
    4fcf:	c3                   	ret    

0000000000004fd0 <_ZStcoSt13_Ios_Fmtflags>:
    4fd0:	f3 0f 1e fa          	endbr64 
    4fd4:	55                   	push   %rbp
    4fd5:	48 89 e5             	mov    %rsp,%rbp
    4fd8:	89 7d fc             	mov    %edi,-0x4(%rbp)
    4fdb:	8b 45 fc             	mov    -0x4(%rbp),%eax
    4fde:	f7 d0                	not    %eax
    4fe0:	5d                   	pop    %rbp
    4fe1:	c3                   	ret    

0000000000004fe2 <_ZStoRRSt13_Ios_FmtflagsS_>:
    4fe2:	f3 0f 1e fa          	endbr64 
    4fe6:	55                   	push   %rbp
    4fe7:	48 89 e5             	mov    %rsp,%rbp
    4fea:	48 83 ec 10          	sub    $0x10,%rsp
    4fee:	48 89 7d f8          	mov    %rdi,-0x8(%rbp)
    4ff2:	89 75 f4             	mov    %esi,-0xc(%rbp)
    4ff5:	48 8b 45 f8          	mov    -0x8(%rbp),%rax
    4ff9:	8b 00                	mov    (%rax),%eax
    4ffb:	8b 55 f4             	mov    -0xc(%rbp),%edx
    4ffe:	89 d6                	mov    %edx,%esi
    5000:	89 c7                	mov    %eax,%edi
    5002:	e8 b3 ff ff ff       	call   4fba <_ZStorSt13_Ios_FmtflagsS_>
    5007:	48 8b 55 f8          	mov    -0x8(%rbp),%rdx
    500b:	89 02                	mov    %eax,(%rdx)
    500d:	48 8b 45 f8          	mov    -0x8(%rbp),%rax
    5011:	c9                   	leave  
    5012:	c3                   	ret    

0000000000005013 <_ZStaNRSt13_Ios_FmtflagsS_>:
    5013:	f3 0f 1e fa          	endbr64 
    5017:	55                   	push   %rbp
    5018:	48 89 e5             	mov    %rsp,%rbp
    501b:	48 83 ec 10          	sub    $0x10,%rsp
    501f:	48 89 7d f8          	mov    %rdi,-0x8(%rbp)
    5023:	89 75 f4             	mov    %esi,-0xc(%rbp)
    5026:	48 8b 45 f8          	mov    -0x8(%rbp),%rax
    502a:	8b 00                	mov    (%rax),%eax
    502c:	8b 55 f4             	mov    -0xc(%rbp),%edx
    502f:	89 d6                	mov    %edx,%esi
    5031:	89 c7                	mov    %eax,%edi
    5033:	e8 6c ff ff ff       	call   4fa4 <_ZStanSt13_Ios_FmtflagsS_>
    5038:	48 8b 55 f8          	mov    -0x8(%rbp),%rdx
    503c:	89 02                	mov    %eax,(%rdx)
    503e:	48 8b 45 f8          	mov    -0x8(%rbp),%rax
    5042:	c9                   	leave  
    5043:	c3                   	ret    

0000000000005044 <_ZNSt8ios_base4setfESt13_Ios_FmtflagsS0_>:
    5044:	f3 0f 1e fa          	endbr64 
    5048:	55                   	push   %rbp
    5049:	48 89 e5             	mov    %rsp,%rbp
    504c:	48 83 ec 20          	sub    $0x20,%rsp
    5050:	48 89 7d e8          	mov    %rdi,-0x18(%rbp)
    5054:	89 75 e4             	mov    %esi,-0x1c(%rbp)
    5057:	89 55 e0             	mov    %edx,-0x20(%rbp)
    505a:	48 8b 45 e8          	mov    -0x18(%rbp),%rax
    505e:	8b 40 18             	mov    0x18(%rax),%eax
    5061:	89 45 fc             	mov    %eax,-0x4(%rbp)
    5064:	8b 45 e0             	mov    -0x20(%rbp),%eax
    5067:	89 c7                	mov    %eax,%edi
    5069:	e8 62 ff ff ff       	call   4fd0 <_ZStcoSt13_Ios_Fmtflags>
    506e:	89 c2                	mov    %eax,%edx
    5070:	48 8b 45 e8          	mov    -0x18(%rbp),%rax
    5074:	48 83 c0 18          	add    $0x18,%rax
    5078:	89 d6                	mov    %edx,%esi
    507a:	48 89 c7             	mov    %rax,%rdi
    507d:	e8 91 ff ff ff       	call   5013 <_ZStaNRSt13_Ios_FmtflagsS_>
    5082:	8b 55 e0             	mov    -0x20(%rbp),%edx
    5085:	8b 45 e4             	mov    -0x1c(%rbp),%eax
    5088:	89 d6                	mov    %edx,%esi
    508a:	89 c7                	mov    %eax,%edi
    508c:	e8 13 ff ff ff       	call   4fa4 <_ZStanSt13_Ios_FmtflagsS_>
    5091:	89 c2                	mov    %eax,%edx
    5093:	48 8b 45 e8          	mov    -0x18(%rbp),%rax
    5097:	48 83 c0 18          	add    $0x18,%rax
    509b:	89 d6                	mov    %edx,%esi
    509d:	48 89 c7             	mov    %rax,%rdi
    50a0:	e8 3d ff ff ff       	call   4fe2 <_ZStoRRSt13_Ios_FmtflagsS_>
    50a5:	8b 45 fc             	mov    -0x4(%rbp),%eax
    50a8:	c9                   	leave  
    50a9:	c3                   	ret    

00000000000050aa <_ZSt3decRSt8ios_base>:
    50aa:	f3 0f 1e fa          	endbr64 
    50ae:	55                   	push   %rbp
    50af:	48 89 e5             	mov    %rsp,%rbp
    50b2:	48 83 ec 10          	sub    $0x10,%rsp
    50b6:	48 89 7d f8          	mov    %rdi,-0x8(%rbp)
    50ba:	48 8b 45 f8          	mov    -0x8(%rbp),%rax
    50be:	ba 4a 00 00 00       	mov    $0x4a,%edx
    50c3:	be 02 00 00 00       	mov    $0x2,%esi
    50c8:	48 89 c7             	mov    %rax,%rdi
    50cb:	e8 74 ff ff ff       	call   5044 <_ZNSt8ios_base4setfESt13_Ios_FmtflagsS0_>
    50d0:	48 8b 45 f8          	mov    -0x8(%rbp),%rax
    50d4:	c9                   	leave  
    50d5:	c3                   	ret    

00000000000050d6 <_ZSt3hexRSt8ios_base>:
    50d6:	f3 0f 1e fa          	endbr64 
    50da:	55                   	push   %rbp
    50db:	48 89 e5             	mov    %rsp,%rbp
    50de:	48 83 ec 10          	sub    $0x10,%rsp
    50e2:	48 89 7d f8          	mov    %rdi,-0x8(%rbp)
    50e6:	48 8b 45 f8          	mov    -0x8(%rbp),%rax
    50ea:	ba 4a 00 00 00       	mov    $0x4a,%edx
    50ef:	be 08 00 00 00       	mov    $0x8,%esi
    50f4:	48 89 c7             	mov    %rax,%rdi
    50f7:	e8 48 ff ff ff       	call   5044 <_ZNSt8ios_base4setfESt13_Ios_FmtflagsS0_>
    50fc:	48 8b 45 f8          	mov    -0x8(%rbp),%rax
    5100:	c9                   	leave  
    5101:	c3                   	ret    

Disassembly of section .fini:

0000000000005104 <_fini>:
    5104:	f3 0f 1e fa          	endbr64 
    5108:	48 83 ec 08          	sub    $0x8,%rsp
    510c:	48 83 c4 08          	add    $0x8,%rsp
    5110:	c3                   	ret    
