
build/pix_tester:     file format elf64-x86-64


Disassembly of section .init:

0000000000001000 <_init>:
    1000:	f3 0f 1e fa          	endbr64 
    1004:	48 83 ec 08          	sub    $0x8,%rsp
    1008:	48 8b 05 d9 3f 00 00 	mov    0x3fd9(%rip),%rax        # 4fe8 <__gmon_start__@Base>
    100f:	48 85 c0             	test   %rax,%rax
    1012:	74 02                	je     1016 <_init+0x16>
    1014:	ff d0                	call   *%rax
    1016:	48 83 c4 08          	add    $0x8,%rsp
    101a:	c3                   	ret    

Disassembly of section .plt:

0000000000001020 <.plt>:
    1020:	ff 35 32 3f 00 00    	push   0x3f32(%rip)        # 4f58 <_GLOBAL_OFFSET_TABLE_+0x8>
    1026:	f2 ff 25 33 3f 00 00 	bnd jmp *0x3f33(%rip)        # 4f60 <_GLOBAL_OFFSET_TABLE_+0x10>
    102d:	0f 1f 00             	nopl   (%rax)
    1030:	f3 0f 1e fa          	endbr64 
    1034:	68 00 00 00 00       	push   $0x0
    1039:	f2 e9 e1 ff ff ff    	bnd jmp 1020 <_init+0x20>
    103f:	90                   	nop
    1040:	f3 0f 1e fa          	endbr64 
    1044:	68 01 00 00 00       	push   $0x1
    1049:	f2 e9 d1 ff ff ff    	bnd jmp 1020 <_init+0x20>
    104f:	90                   	nop
    1050:	f3 0f 1e fa          	endbr64 
    1054:	68 02 00 00 00       	push   $0x2
    1059:	f2 e9 c1 ff ff ff    	bnd jmp 1020 <_init+0x20>
    105f:	90                   	nop
    1060:	f3 0f 1e fa          	endbr64 
    1064:	68 03 00 00 00       	push   $0x3
    1069:	f2 e9 b1 ff ff ff    	bnd jmp 1020 <_init+0x20>
    106f:	90                   	nop
    1070:	f3 0f 1e fa          	endbr64 
    1074:	68 04 00 00 00       	push   $0x4
    1079:	f2 e9 a1 ff ff ff    	bnd jmp 1020 <_init+0x20>
    107f:	90                   	nop
    1080:	f3 0f 1e fa          	endbr64 
    1084:	68 05 00 00 00       	push   $0x5
    1089:	f2 e9 91 ff ff ff    	bnd jmp 1020 <_init+0x20>
    108f:	90                   	nop
    1090:	f3 0f 1e fa          	endbr64 
    1094:	68 06 00 00 00       	push   $0x6
    1099:	f2 e9 81 ff ff ff    	bnd jmp 1020 <_init+0x20>
    109f:	90                   	nop
    10a0:	f3 0f 1e fa          	endbr64 
    10a4:	68 07 00 00 00       	push   $0x7
    10a9:	f2 e9 71 ff ff ff    	bnd jmp 1020 <_init+0x20>
    10af:	90                   	nop
    10b0:	f3 0f 1e fa          	endbr64 
    10b4:	68 08 00 00 00       	push   $0x8
    10b9:	f2 e9 61 ff ff ff    	bnd jmp 1020 <_init+0x20>
    10bf:	90                   	nop
    10c0:	f3 0f 1e fa          	endbr64 
    10c4:	68 09 00 00 00       	push   $0x9
    10c9:	f2 e9 51 ff ff ff    	bnd jmp 1020 <_init+0x20>
    10cf:	90                   	nop
    10d0:	f3 0f 1e fa          	endbr64 
    10d4:	68 0a 00 00 00       	push   $0xa
    10d9:	f2 e9 41 ff ff ff    	bnd jmp 1020 <_init+0x20>
    10df:	90                   	nop
    10e0:	f3 0f 1e fa          	endbr64 
    10e4:	68 0b 00 00 00       	push   $0xb
    10e9:	f2 e9 31 ff ff ff    	bnd jmp 1020 <_init+0x20>
    10ef:	90                   	nop
    10f0:	f3 0f 1e fa          	endbr64 
    10f4:	68 0c 00 00 00       	push   $0xc
    10f9:	f2 e9 21 ff ff ff    	bnd jmp 1020 <_init+0x20>
    10ff:	90                   	nop

Disassembly of section .plt.got:

0000000000001100 <__cxa_finalize@plt>:
    1100:	f3 0f 1e fa          	endbr64 
    1104:	f2 ff 25 c5 3e 00 00 	bnd jmp *0x3ec5(%rip)        # 4fd0 <__cxa_finalize@GLIBC_2.2.5>
    110b:	0f 1f 44 00 00       	nopl   0x0(%rax,%rax,1)

Disassembly of section .plt.sec:

0000000000001110 <__cxa_begin_catch@plt>:
    1110:	f3 0f 1e fa          	endbr64 
    1114:	f2 ff 25 4d 3e 00 00 	bnd jmp *0x3e4d(%rip)        # 4f68 <__cxa_begin_catch@CXXABI_1.3>
    111b:	0f 1f 44 00 00       	nopl   0x0(%rax,%rax,1)

0000000000001120 <__cxa_allocate_exception@plt>:
    1120:	f3 0f 1e fa          	endbr64 
    1124:	f2 ff 25 45 3e 00 00 	bnd jmp *0x3e45(%rip)        # 4f70 <__cxa_allocate_exception@CXXABI_1.3>
    112b:	0f 1f 44 00 00       	nopl   0x0(%rax,%rax,1)

0000000000001130 <tanhl@plt>:
    1130:	f3 0f 1e fa          	endbr64 
    1134:	f2 ff 25 3d 3e 00 00 	bnd jmp *0x3e3d(%rip)        # 4f78 <tanhl@GLIBC_2.2.5>
    113b:	0f 1f 44 00 00       	nopl   0x0(%rax,%rax,1)

0000000000001140 <__cxa_atexit@plt>:
    1140:	f3 0f 1e fa          	endbr64 
    1144:	f2 ff 25 35 3e 00 00 	bnd jmp *0x3e35(%rip)        # 4f80 <__cxa_atexit@GLIBC_2.2.5>
    114b:	0f 1f 44 00 00       	nopl   0x0(%rax,%rax,1)

0000000000001150 <_ZStlsISt11char_traitsIcEERSt13basic_ostreamIcT_ES5_PKc@plt>:
    1150:	f3 0f 1e fa          	endbr64 
    1154:	f2 ff 25 2d 3e 00 00 	bnd jmp *0x3e2d(%rip)        # 4f88 <_ZStlsISt11char_traitsIcEERSt13basic_ostreamIcT_ES5_PKc@GLIBCXX_3.4>
    115b:	0f 1f 44 00 00       	nopl   0x0(%rax,%rax,1)

0000000000001160 <__stack_chk_fail@plt>:
    1160:	f3 0f 1e fa          	endbr64 
    1164:	f2 ff 25 25 3e 00 00 	bnd jmp *0x3e25(%rip)        # 4f90 <__stack_chk_fail@GLIBC_2.4>
    116b:	0f 1f 44 00 00       	nopl   0x0(%rax,%rax,1)

0000000000001170 <_ZNSolsEe@plt>:
    1170:	f3 0f 1e fa          	endbr64 
    1174:	f2 ff 25 1d 3e 00 00 	bnd jmp *0x3e1d(%rip)        # 4f98 <_ZNSolsEe@GLIBCXX_3.4>
    117b:	0f 1f 44 00 00       	nopl   0x0(%rax,%rax,1)

0000000000001180 <_ZStlsISt11char_traitsIcEERSt13basic_ostreamIcT_ES5_c@plt>:
    1180:	f3 0f 1e fa          	endbr64 
    1184:	f2 ff 25 15 3e 00 00 	bnd jmp *0x3e15(%rip)        # 4fa0 <_ZStlsISt11char_traitsIcEERSt13basic_ostreamIcT_ES5_c@GLIBCXX_3.4>
    118b:	0f 1f 44 00 00       	nopl   0x0(%rax,%rax,1)

0000000000001190 <_ZNSi3getEv@plt>:
    1190:	f3 0f 1e fa          	endbr64 
    1194:	f2 ff 25 0d 3e 00 00 	bnd jmp *0x3e0d(%rip)        # 4fa8 <_ZNSi3getEv@GLIBCXX_3.4>
    119b:	0f 1f 44 00 00       	nopl   0x0(%rax,%rax,1)

00000000000011a0 <_ZNSt8ios_base4InitC1Ev@plt>:
    11a0:	f3 0f 1e fa          	endbr64 
    11a4:	f2 ff 25 05 3e 00 00 	bnd jmp *0x3e05(%rip)        # 4fb0 <_ZNSt8ios_base4InitC1Ev@GLIBCXX_3.4>
    11ab:	0f 1f 44 00 00       	nopl   0x0(%rax,%rax,1)

00000000000011b0 <__cxa_end_catch@plt>:
    11b0:	f3 0f 1e fa          	endbr64 
    11b4:	f2 ff 25 fd 3d 00 00 	bnd jmp *0x3dfd(%rip)        # 4fb8 <__cxa_end_catch@CXXABI_1.3>
    11bb:	0f 1f 44 00 00       	nopl   0x0(%rax,%rax,1)

00000000000011c0 <__cxa_throw@plt>:
    11c0:	f3 0f 1e fa          	endbr64 
    11c4:	f2 ff 25 f5 3d 00 00 	bnd jmp *0x3df5(%rip)        # 4fc0 <__cxa_throw@CXXABI_1.3>
    11cb:	0f 1f 44 00 00       	nopl   0x0(%rax,%rax,1)

00000000000011d0 <_Unwind_Resume@plt>:
    11d0:	f3 0f 1e fa          	endbr64 
    11d4:	f2 ff 25 ed 3d 00 00 	bnd jmp *0x3ded(%rip)        # 4fc8 <_Unwind_Resume@GCC_3.0>
    11db:	0f 1f 44 00 00       	nopl   0x0(%rax,%rax,1)

Disassembly of section .text:

00000000000011e0 <_start>:
    11e0:	f3 0f 1e fa          	endbr64 
    11e4:	31 ed                	xor    %ebp,%ebp
    11e6:	49 89 d1             	mov    %rdx,%r9
    11e9:	5e                   	pop    %rsi
    11ea:	48 89 e2             	mov    %rsp,%rdx
    11ed:	48 83 e4 f0          	and    $0xfffffffffffffff0,%rsp
    11f1:	50                   	push   %rax
    11f2:	54                   	push   %rsp
    11f3:	45 31 c0             	xor    %r8d,%r8d
    11f6:	31 c9                	xor    %ecx,%ecx
    11f8:	48 8d 3d cf 10 00 00 	lea    0x10cf(%rip),%rdi        # 22ce <main>
    11ff:	ff 15 d3 3d 00 00    	call   *0x3dd3(%rip)        # 4fd8 <__libc_start_main@GLIBC_2.34>
    1205:	f4                   	hlt    
    1206:	66 2e 0f 1f 84 00 00 	cs nopw 0x0(%rax,%rax,1)
    120d:	00 00 00 

0000000000001210 <deregister_tm_clones>:
    1210:	48 8d 3d 11 3e 00 00 	lea    0x3e11(%rip),%rdi        # 5028 <__TMC_END__>
    1217:	48 8d 05 0a 3e 00 00 	lea    0x3e0a(%rip),%rax        # 5028 <__TMC_END__>
    121e:	48 39 f8             	cmp    %rdi,%rax
    1221:	74 15                	je     1238 <deregister_tm_clones+0x28>
    1223:	48 8b 05 b6 3d 00 00 	mov    0x3db6(%rip),%rax        # 4fe0 <_ITM_deregisterTMCloneTable@Base>
    122a:	48 85 c0             	test   %rax,%rax
    122d:	74 09                	je     1238 <deregister_tm_clones+0x28>
    122f:	ff e0                	jmp    *%rax
    1231:	0f 1f 80 00 00 00 00 	nopl   0x0(%rax)
    1238:	c3                   	ret    
    1239:	0f 1f 80 00 00 00 00 	nopl   0x0(%rax)

0000000000001240 <register_tm_clones>:
    1240:	48 8d 3d e1 3d 00 00 	lea    0x3de1(%rip),%rdi        # 5028 <__TMC_END__>
    1247:	48 8d 35 da 3d 00 00 	lea    0x3dda(%rip),%rsi        # 5028 <__TMC_END__>
    124e:	48 29 fe             	sub    %rdi,%rsi
    1251:	48 89 f0             	mov    %rsi,%rax
    1254:	48 c1 ee 3f          	shr    $0x3f,%rsi
    1258:	48 c1 f8 03          	sar    $0x3,%rax
    125c:	48 01 c6             	add    %rax,%rsi
    125f:	48 d1 fe             	sar    %rsi
    1262:	74 14                	je     1278 <register_tm_clones+0x38>
    1264:	48 8b 05 85 3d 00 00 	mov    0x3d85(%rip),%rax        # 4ff0 <_ITM_registerTMCloneTable@Base>
    126b:	48 85 c0             	test   %rax,%rax
    126e:	74 08                	je     1278 <register_tm_clones+0x38>
    1270:	ff e0                	jmp    *%rax
    1272:	66 0f 1f 44 00 00    	nopw   0x0(%rax,%rax,1)
    1278:	c3                   	ret    
    1279:	0f 1f 80 00 00 00 00 	nopl   0x0(%rax)

0000000000001280 <__do_global_dtors_aux>:
    1280:	f3 0f 1e fa          	endbr64 
    1284:	80 3d ed 3f 00 00 00 	cmpb   $0x0,0x3fed(%rip)        # 5278 <completed.0>
    128b:	75 2b                	jne    12b8 <__do_global_dtors_aux+0x38>
    128d:	55                   	push   %rbp
    128e:	48 83 3d 3a 3d 00 00 	cmpq   $0x0,0x3d3a(%rip)        # 4fd0 <__cxa_finalize@GLIBC_2.2.5>
    1295:	00 
    1296:	48 89 e5             	mov    %rsp,%rbp
    1299:	74 0c                	je     12a7 <__do_global_dtors_aux+0x27>
    129b:	48 8b 3d 66 3d 00 00 	mov    0x3d66(%rip),%rdi        # 5008 <__dso_handle>
    12a2:	e8 59 fe ff ff       	call   1100 <__cxa_finalize@plt>
    12a7:	e8 64 ff ff ff       	call   1210 <deregister_tm_clones>
    12ac:	c6 05 c5 3f 00 00 01 	movb   $0x1,0x3fc5(%rip)        # 5278 <completed.0>
    12b3:	5d                   	pop    %rbp
    12b4:	c3                   	ret    
    12b5:	0f 1f 00             	nopl   (%rax)
    12b8:	c3                   	ret    
    12b9:	0f 1f 80 00 00 00 00 	nopl   0x0(%rax)

00000000000012c0 <frame_dummy>:
    12c0:	f3 0f 1e fa          	endbr64 
    12c4:	e9 77 ff ff ff       	jmp    1240 <register_tm_clones>
    12c9:	90                   	nop

00000000000012ca <_ZN3pix6random4randEv>:
    12ca:	f3 0f 1e fa          	endbr64 
    12ce:	55                   	push   %rbp
    12cf:	48 89 e5             	mov    %rsp,%rbp
    12d2:	48 8b 05 37 3d 00 00 	mov    0x3d37(%rip),%rax        # 5010 <_ZZN3pix6random4randEvE5value>
    12d9:	48 69 c0 26 03 00 00 	imul   $0x326,%rax,%rax
    12e0:	48 8d 48 67          	lea    0x67(%rax),%rcx
    12e4:	48 ba 05 00 00 00 02 	movabs $0x200000005,%rdx
    12eb:	00 00 00 
    12ee:	48 89 c8             	mov    %rcx,%rax
    12f1:	48 f7 e2             	mul    %rdx
    12f4:	48 89 c8             	mov    %rcx,%rax
    12f7:	48 29 d0             	sub    %rdx,%rax
    12fa:	48 d1 e8             	shr    %rax
    12fd:	48 01 d0             	add    %rdx,%rax
    1300:	48 c1 e8 1e          	shr    $0x1e,%rax
    1304:	48 89 c2             	mov    %rax,%rdx
    1307:	48 c1 e2 1f          	shl    $0x1f,%rdx
    130b:	48 29 c2             	sub    %rax,%rdx
    130e:	48 89 c8             	mov    %rcx,%rax
    1311:	48 29 d0             	sub    %rdx,%rax
    1314:	48 89 05 f5 3c 00 00 	mov    %rax,0x3cf5(%rip)        # 5010 <_ZZN3pix6random4randEvE5value>
    131b:	48 8b 05 ee 3c 00 00 	mov    0x3cee(%rip),%rax        # 5010 <_ZZN3pix6random4randEvE5value>
    1322:	5d                   	pop    %rbp
    1323:	c3                   	ret    

0000000000001324 <_ZN3pix6random4randEll>:
    1324:	f3 0f 1e fa          	endbr64 
    1328:	55                   	push   %rbp
    1329:	48 89 e5             	mov    %rsp,%rbp
    132c:	53                   	push   %rbx
    132d:	48 83 ec 18          	sub    $0x18,%rsp
    1331:	48 89 7d e8          	mov    %rdi,-0x18(%rbp)
    1335:	48 89 75 e0          	mov    %rsi,-0x20(%rbp)
    1339:	48 8b 45 e8          	mov    -0x18(%rbp),%rax
    133d:	48 3b 45 e0          	cmp    -0x20(%rbp),%rax
    1341:	7c 2b                	jl     136e <_ZN3pix6random4randEll+0x4a>
    1343:	bf 08 00 00 00       	mov    $0x8,%edi
    1348:	e8 d3 fd ff ff       	call   1120 <__cxa_allocate_exception@plt>
    134d:	48 8d 15 6c 1d 00 00 	lea    0x1d6c(%rip),%rdx        # 30c0 <_ZN3pix6randomL3MODE+0x8>
    1354:	48 89 10             	mov    %rdx,(%rax)
    1357:	ba 00 00 00 00       	mov    $0x0,%edx
    135c:	48 8d 0d ad 39 00 00 	lea    0x39ad(%rip),%rcx        # 4d10 <_ZTIPKc@CXXABI_1.3>
    1363:	48 89 ce             	mov    %rcx,%rsi
    1366:	48 89 c7             	mov    %rax,%rdi
    1369:	e8 52 fe ff ff       	call   11c0 <__cxa_throw@plt>
    136e:	48 8b 45 e0          	mov    -0x20(%rbp),%rax
    1372:	48 2b 45 e8          	sub    -0x18(%rbp),%rax
    1376:	48 89 c3             	mov    %rax,%rbx
    1379:	e8 4c ff ff ff       	call   12ca <_ZN3pix6random4randEv>
    137e:	48 0f af d8          	imul   %rax,%rbx
    1382:	48 89 da             	mov    %rbx,%rdx
    1385:	48 8b 45 e8          	mov    -0x18(%rbp),%rax
    1389:	48 01 d0             	add    %rdx,%rax
    138c:	48 8b 5d f8          	mov    -0x8(%rbp),%rbx
    1390:	c9                   	leave  
    1391:	c3                   	ret    

0000000000001392 <_ZN3pix6random5drandEv>:
    1392:	f3 0f 1e fa          	endbr64 
    1396:	55                   	push   %rbp
    1397:	48 89 e5             	mov    %rsp,%rbp
    139a:	48 83 ec 10          	sub    $0x10,%rsp
    139e:	e8 27 ff ff ff       	call   12ca <_ZN3pix6random4randEv>
    13a3:	48 89 45 f8          	mov    %rax,-0x8(%rbp)
    13a7:	df 6d f8             	fildll -0x8(%rbp)
    13aa:	48 85 c0             	test   %rax,%rax
    13ad:	79 08                	jns    13b7 <_ZN3pix6random5drandEv+0x25>
    13af:	db 2d 6b 1e 00 00    	fldt   0x1e6b(%rip)        # 3220 <_ZN3pix8graphicsL7max_valE+0x7c>
    13b5:	de c1                	faddp  %st,%st(1)
    13b7:	db 2d 73 1e 00 00    	fldt   0x1e73(%rip)        # 3230 <_ZN3pix8graphicsL7max_valE+0x8c>
    13bd:	de f9                	fdivrp %st,%st(1)
    13bf:	c9                   	leave  
    13c0:	c3                   	ret    

00000000000013c1 <_ZN3pix6random5drandEee>:
    13c1:	f3 0f 1e fa          	endbr64 
    13c5:	55                   	push   %rbp
    13c6:	48 89 e5             	mov    %rsp,%rbp
    13c9:	48 83 ec 10          	sub    $0x10,%rsp
    13cd:	db 6d 20             	fldt   0x20(%rbp)
    13d0:	db 6d 10             	fldt   0x10(%rbp)
    13d3:	df f1                	fcomip %st(1),%st
    13d5:	dd d8                	fstp   %st(0)
    13d7:	72 2b                	jb     1404 <_ZN3pix6random5drandEee+0x43>
    13d9:	bf 08 00 00 00       	mov    $0x8,%edi
    13de:	e8 3d fd ff ff       	call   1120 <__cxa_allocate_exception@plt>
    13e3:	48 8d 15 d6 1c 00 00 	lea    0x1cd6(%rip),%rdx        # 30c0 <_ZN3pix6randomL3MODE+0x8>
    13ea:	48 89 10             	mov    %rdx,(%rax)
    13ed:	ba 00 00 00 00       	mov    $0x0,%edx
    13f2:	48 8d 0d 17 39 00 00 	lea    0x3917(%rip),%rcx        # 4d10 <_ZTIPKc@CXXABI_1.3>
    13f9:	48 89 ce             	mov    %rcx,%rsi
    13fc:	48 89 c7             	mov    %rax,%rdi
    13ff:	e8 bc fd ff ff       	call   11c0 <__cxa_throw@plt>
    1404:	db 6d 20             	fldt   0x20(%rbp)
    1407:	db 6d 10             	fldt   0x10(%rbp)
    140a:	de e9                	fsubrp %st,%st(1)
    140c:	db 7d f0             	fstpt  -0x10(%rbp)
    140f:	e8 7e ff ff ff       	call   1392 <_ZN3pix6random5drandEv>
    1414:	db 6d f0             	fldt   -0x10(%rbp)
    1417:	de c9                	fmulp  %st,%st(1)
    1419:	db 6d 10             	fldt   0x10(%rbp)
    141c:	de c1                	faddp  %st,%st(1)
    141e:	c9                   	leave  
    141f:	c3                   	ret    

0000000000001420 <_ZN3pix6random5crandEv>:
    1420:	f3 0f 1e fa          	endbr64 
    1424:	55                   	push   %rbp
    1425:	48 89 e5             	mov    %rsp,%rbp
    1428:	e8 9d fe ff ff       	call   12ca <_ZN3pix6random4randEv>
    142d:	48 89 c1             	mov    %rax,%rcx
    1430:	48 ba c5 4e ec c4 4e 	movabs $0x4ec4ec4ec4ec4ec5,%rdx
    1437:	ec c4 4e 
    143a:	48 89 c8             	mov    %rcx,%rax
    143d:	48 f7 e2             	mul    %rdx
    1440:	48 c1 ea 03          	shr    $0x3,%rdx
    1444:	48 89 d0             	mov    %rdx,%rax
    1447:	48 01 c0             	add    %rax,%rax
    144a:	48 01 d0             	add    %rdx,%rax
    144d:	48 c1 e0 02          	shl    $0x2,%rax
    1451:	48 01 d0             	add    %rdx,%rax
    1454:	48 01 c0             	add    %rax,%rax
    1457:	48 29 c1             	sub    %rax,%rcx
    145a:	48 89 ca             	mov    %rcx,%rdx
    145d:	89 d0                	mov    %edx,%eax
    145f:	83 c0 61             	add    $0x61,%eax
    1462:	5d                   	pop    %rbp
    1463:	c3                   	ret    

0000000000001464 <_ZN3pix4math3fibEm>:
    1464:	f3 0f 1e fa          	endbr64 
    1468:	55                   	push   %rbp
    1469:	48 89 e5             	mov    %rsp,%rbp
    146c:	53                   	push   %rbx
    146d:	48 83 ec 38          	sub    $0x38,%rsp
    1471:	48 89 7d c8          	mov    %rdi,-0x38(%rbp)
    1475:	64 48 8b 04 25 28 00 	mov    %fs:0x28,%rax
    147c:	00 00 
    147e:	48 89 45 e8          	mov    %rax,-0x18(%rbp)
    1482:	31 c0                	xor    %eax,%eax
    1484:	48 89 e0             	mov    %rsp,%rax
    1487:	48 89 c6             	mov    %rax,%rsi
    148a:	48 8b 45 c8          	mov    -0x38(%rbp),%rax
    148e:	48 83 c0 02          	add    $0x2,%rax
    1492:	48 89 c2             	mov    %rax,%rdx
    1495:	48 83 ea 01          	sub    $0x1,%rdx
    1499:	48 89 55 d8          	mov    %rdx,-0x28(%rbp)
    149d:	49 89 c0             	mov    %rax,%r8
    14a0:	41 b9 00 00 00 00    	mov    $0x0,%r9d
    14a6:	48 89 c1             	mov    %rax,%rcx
    14a9:	bb 00 00 00 00       	mov    $0x0,%ebx
    14ae:	48 8d 14 c5 00 00 00 	lea    0x0(,%rax,8),%rdx
    14b5:	00 
    14b6:	b8 10 00 00 00       	mov    $0x10,%eax
    14bb:	48 83 e8 01          	sub    $0x1,%rax
    14bf:	48 01 d0             	add    %rdx,%rax
    14c2:	bb 10 00 00 00       	mov    $0x10,%ebx
    14c7:	ba 00 00 00 00       	mov    $0x0,%edx
    14cc:	48 f7 f3             	div    %rbx
    14cf:	48 6b c0 10          	imul   $0x10,%rax,%rax
    14d3:	48 89 c1             	mov    %rax,%rcx
    14d6:	48 81 e1 00 f0 ff ff 	and    $0xfffffffffffff000,%rcx
    14dd:	48 89 e2             	mov    %rsp,%rdx
    14e0:	48 29 ca             	sub    %rcx,%rdx
    14e3:	48 39 d4             	cmp    %rdx,%rsp
    14e6:	74 12                	je     14fa <_ZN3pix4math3fibEm+0x96>
    14e8:	48 81 ec 00 10 00 00 	sub    $0x1000,%rsp
    14ef:	48 83 8c 24 f8 0f 00 	orq    $0x0,0xff8(%rsp)
    14f6:	00 00 
    14f8:	eb e9                	jmp    14e3 <_ZN3pix4math3fibEm+0x7f>
    14fa:	48 89 c2             	mov    %rax,%rdx
    14fd:	81 e2 ff 0f 00 00    	and    $0xfff,%edx
    1503:	48 29 d4             	sub    %rdx,%rsp
    1506:	48 89 c2             	mov    %rax,%rdx
    1509:	81 e2 ff 0f 00 00    	and    $0xfff,%edx
    150f:	48 85 d2             	test   %rdx,%rdx
    1512:	74 10                	je     1524 <_ZN3pix4math3fibEm+0xc0>
    1514:	25 ff 0f 00 00       	and    $0xfff,%eax
    1519:	48 83 e8 08          	sub    $0x8,%rax
    151d:	48 01 e0             	add    %rsp,%rax
    1520:	48 83 08 00          	orq    $0x0,(%rax)
    1524:	48 89 e0             	mov    %rsp,%rax
    1527:	48 83 c0 07          	add    $0x7,%rax
    152b:	48 c1 e8 03          	shr    $0x3,%rax
    152f:	48 c1 e0 03          	shl    $0x3,%rax
    1533:	48 89 45 e0          	mov    %rax,-0x20(%rbp)
    1537:	48 8b 45 e0          	mov    -0x20(%rbp),%rax
    153b:	48 c7 00 00 00 00 00 	movq   $0x0,(%rax)
    1542:	48 8b 45 e0          	mov    -0x20(%rbp),%rax
    1546:	48 c7 40 08 01 00 00 	movq   $0x1,0x8(%rax)
    154d:	00 
    154e:	48 c7 45 d0 02 00 00 	movq   $0x2,-0x30(%rbp)
    1555:	00 
    1556:	eb 34                	jmp    158c <_ZN3pix4math3fibEm+0x128>
    1558:	48 8b 45 d0          	mov    -0x30(%rbp),%rax
    155c:	48 8d 50 ff          	lea    -0x1(%rax),%rdx
    1560:	48 8b 45 e0          	mov    -0x20(%rbp),%rax
    1564:	48 8b 0c d0          	mov    (%rax,%rdx,8),%rcx
    1568:	48 8b 45 d0          	mov    -0x30(%rbp),%rax
    156c:	48 8d 50 fe          	lea    -0x2(%rax),%rdx
    1570:	48 8b 45 e0          	mov    -0x20(%rbp),%rax
    1574:	48 8b 04 d0          	mov    (%rax,%rdx,8),%rax
    1578:	48 01 c1             	add    %rax,%rcx
    157b:	48 8b 45 e0          	mov    -0x20(%rbp),%rax
    157f:	48 8b 55 d0          	mov    -0x30(%rbp),%rdx
    1583:	48 89 0c d0          	mov    %rcx,(%rax,%rdx,8)
    1587:	48 83 45 d0 01       	addq   $0x1,-0x30(%rbp)
    158c:	48 8b 45 d0          	mov    -0x30(%rbp),%rax
    1590:	48 3b 45 c8          	cmp    -0x38(%rbp),%rax
    1594:	76 c2                	jbe    1558 <_ZN3pix4math3fibEm+0xf4>
    1596:	48 8b 45 e0          	mov    -0x20(%rbp),%rax
    159a:	48 8b 55 c8          	mov    -0x38(%rbp),%rdx
    159e:	48 8b 04 d0          	mov    (%rax,%rdx,8),%rax
    15a2:	48 89 f4             	mov    %rsi,%rsp
    15a5:	48 8b 55 e8          	mov    -0x18(%rbp),%rdx
    15a9:	64 48 2b 14 25 28 00 	sub    %fs:0x28,%rdx
    15b0:	00 00 
    15b2:	74 05                	je     15b9 <_ZN3pix4math3fibEm+0x155>
    15b4:	e8 a7 fb ff ff       	call   1160 <__stack_chk_fail@plt>
    15b9:	48 8b 5d f8          	mov    -0x8(%rbp),%rbx
    15bd:	c9                   	leave  
    15be:	c3                   	ret    

00000000000015bf <_ZN3pix4math3logEe>:
    15bf:	f3 0f 1e fa          	endbr64 
    15c3:	55                   	push   %rbp
    15c4:	48 89 e5             	mov    %rsp,%rbp
    15c7:	48 83 ec 50          	sub    $0x50,%rsp
    15cb:	db 6d 10             	fldt   0x10(%rbp)
    15ce:	d9 ee                	fldz   
    15d0:	df f1                	fcomip %st(1),%st
    15d2:	dd d8                	fstp   %st(0)
    15d4:	72 2b                	jb     1601 <_ZN3pix4math3logEe+0x42>
    15d6:	bf 08 00 00 00       	mov    $0x8,%edi
    15db:	e8 40 fb ff ff       	call   1120 <__cxa_allocate_exception@plt>
    15e0:	48 8d 15 31 1b 00 00 	lea    0x1b31(%rip),%rdx        # 3118 <_ZL7STD_NaN+0x8>
    15e7:	48 89 10             	mov    %rdx,(%rax)
    15ea:	ba 00 00 00 00       	mov    $0x0,%edx
    15ef:	48 8d 0d 1a 37 00 00 	lea    0x371a(%rip),%rcx        # 4d10 <_ZTIPKc@CXXABI_1.3>
    15f6:	48 89 ce             	mov    %rcx,%rsi
    15f9:	48 89 c7             	mov    %rax,%rdi
    15fc:	e8 bf fb ff ff       	call   11c0 <__cxa_throw@plt>
    1601:	d9 ee                	fldz   
    1603:	db 7d c0             	fstpt  -0x40(%rbp)
    1606:	db 6d 10             	fldt   0x10(%rbp)
    1609:	d9 e8                	fld1   
    160b:	de e9                	fsubrp %st,%st(1)
    160d:	db 6d 10             	fldt   0x10(%rbp)
    1610:	d9 e8                	fld1   
    1612:	de c1                	faddp  %st,%st(1)
    1614:	de f9                	fdivrp %st,%st(1)
    1616:	db 7d e0             	fstpt  -0x20(%rbp)
    1619:	db 6d e0             	fldt   -0x20(%rbp)
    161c:	db 7d d0             	fstpt  -0x30(%rbp)
    161f:	db 6d e0             	fldt   -0x20(%rbp)
    1622:	d8 c8                	fmul   %st(0),%st
    1624:	db 7d f0             	fstpt  -0x10(%rbp)
    1627:	48 c7 45 b8 41 42 0f 	movq   $0xf4241,-0x48(%rbp)
    162e:	00 
    162f:	48 c7 45 b0 01 00 00 	movq   $0x1,-0x50(%rbp)
    1636:	00 
    1637:	eb 4f                	jmp    1688 <_ZN3pix4math3logEe+0xc9>
    1639:	ff 75 d8             	push   -0x28(%rbp)
    163c:	ff 75 d0             	push   -0x30(%rbp)
    163f:	e8 23 10 00 00       	call   2667 <_ZN3pix4math3absIeEET_S2_>
    1644:	48 83 c4 10          	add    $0x10,%rsp
    1648:	db 2d f2 1b 00 00    	fldt   0x1bf2(%rip)        # 3240 <_ZN3pix8graphicsL7max_valE+0x9c>
    164e:	df f1                	fcomip %st(1),%st
    1650:	dd d8                	fstp   %st(0)
    1652:	0f 97 c0             	seta   %al
    1655:	84 c0                	test   %al,%al
    1657:	75 3b                	jne    1694 <_ZN3pix4math3logEe+0xd5>
    1659:	df 6d b0             	fildll -0x50(%rbp)
    165c:	48 83 7d b0 00       	cmpq   $0x0,-0x50(%rbp)
    1661:	79 08                	jns    166b <_ZN3pix4math3logEe+0xac>
    1663:	db 2d b7 1b 00 00    	fldt   0x1bb7(%rip)        # 3220 <_ZN3pix8graphicsL7max_valE+0x7c>
    1669:	de c1                	faddp  %st,%st(1)
    166b:	db 6d d0             	fldt   -0x30(%rbp)
    166e:	de f1                	fdivp  %st,%st(1)
    1670:	db 6d c0             	fldt   -0x40(%rbp)
    1673:	de c1                	faddp  %st,%st(1)
    1675:	db 7d c0             	fstpt  -0x40(%rbp)
    1678:	db 6d d0             	fldt   -0x30(%rbp)
    167b:	db 6d f0             	fldt   -0x10(%rbp)
    167e:	de c9                	fmulp  %st,%st(1)
    1680:	db 7d d0             	fstpt  -0x30(%rbp)
    1683:	48 83 45 b0 02       	addq   $0x2,-0x50(%rbp)
    1688:	48 81 7d b0 40 42 0f 	cmpq   $0xf4240,-0x50(%rbp)
    168f:	00 
    1690:	76 a7                	jbe    1639 <_ZN3pix4math3logEe+0x7a>
    1692:	eb 01                	jmp    1695 <_ZN3pix4math3logEe+0xd6>
    1694:	90                   	nop
    1695:	db 6d c0             	fldt   -0x40(%rbp)
    1698:	d8 c0                	fadd   %st(0),%st
    169a:	c9                   	leave  
    169b:	c3                   	ret    

000000000000169c <_ZN3pix4math3logEee>:
    169c:	f3 0f 1e fa          	endbr64 
    16a0:	55                   	push   %rbp
    16a1:	48 89 e5             	mov    %rsp,%rbp
    16a4:	48 83 ec 10          	sub    $0x10,%rsp
    16a8:	ff 75 18             	push   0x18(%rbp)
    16ab:	ff 75 10             	push   0x10(%rbp)
    16ae:	e8 0c ff ff ff       	call   15bf <_ZN3pix4math3logEe>
    16b3:	48 83 c4 10          	add    $0x10,%rsp
    16b7:	db 7d f0             	fstpt  -0x10(%rbp)
    16ba:	ff 75 28             	push   0x28(%rbp)
    16bd:	ff 75 20             	push   0x20(%rbp)
    16c0:	e8 fa fe ff ff       	call   15bf <_ZN3pix4math3logEe>
    16c5:	48 83 c4 10          	add    $0x10,%rsp
    16c9:	db 6d f0             	fldt   -0x10(%rbp)
    16cc:	de f1                	fdivp  %st,%st(1)
    16ce:	c9                   	leave  
    16cf:	c3                   	ret    

00000000000016d0 <_ZN3pix4math3expEe>:
    16d0:	f3 0f 1e fa          	endbr64 
    16d4:	55                   	push   %rbp
    16d5:	48 89 e5             	mov    %rsp,%rbp
    16d8:	48 83 ec 40          	sub    $0x40,%rsp
    16dc:	db 6d 10             	fldt   0x10(%rbp)
    16df:	d9 ee                	fldz   
    16e1:	df f1                	fcomip %st(1),%st
    16e3:	dd d8                	fstp   %st(0)
    16e5:	0f 97 c0             	seta   %al
    16e8:	88 45 d7             	mov    %al,-0x29(%rbp)
    16eb:	ff 75 18             	push   0x18(%rbp)
    16ee:	ff 75 10             	push   0x10(%rbp)
    16f1:	e8 71 0f 00 00       	call   2667 <_ZN3pix4math3absIeEET_S2_>
    16f6:	48 83 c4 10          	add    $0x10,%rsp
    16fa:	db 7d 10             	fstpt  0x10(%rbp)
    16fd:	d9 e8                	fld1   
    16ff:	db 7d e0             	fstpt  -0x20(%rbp)
    1702:	d9 e8                	fld1   
    1704:	db 7d f0             	fstpt  -0x10(%rbp)
    1707:	48 c7 45 d8 00 00 00 	movq   $0x0,-0x28(%rbp)
    170e:	00 
    170f:	eb 59                	jmp    176a <_ZN3pix4math3expEe+0x9a>
    1711:	48 8b 45 d8          	mov    -0x28(%rbp),%rax
    1715:	48 83 c0 01          	add    $0x1,%rax
    1719:	48 89 45 c8          	mov    %rax,-0x38(%rbp)
    171d:	df 6d c8             	fildll -0x38(%rbp)
    1720:	48 85 c0             	test   %rax,%rax
    1723:	79 08                	jns    172d <_ZN3pix4math3expEe+0x5d>
    1725:	db 2d f5 1a 00 00    	fldt   0x1af5(%rip)        # 3220 <_ZN3pix8graphicsL7max_valE+0x7c>
    172b:	de c1                	faddp  %st,%st(1)
    172d:	db 6d 10             	fldt   0x10(%rbp)
    1730:	de f1                	fdivp  %st,%st(1)
    1732:	db 6d f0             	fldt   -0x10(%rbp)
    1735:	de c9                	fmulp  %st,%st(1)
    1737:	db 7d f0             	fstpt  -0x10(%rbp)
    173a:	ff 75 f8             	push   -0x8(%rbp)
    173d:	ff 75 f0             	push   -0x10(%rbp)
    1740:	e8 22 0f 00 00       	call   2667 <_ZN3pix4math3absIeEET_S2_>
    1745:	48 83 c4 10          	add    $0x10,%rsp
    1749:	db 2d f1 1a 00 00    	fldt   0x1af1(%rip)        # 3240 <_ZN3pix8graphicsL7max_valE+0x9c>
    174f:	df f1                	fcomip %st(1),%st
    1751:	dd d8                	fstp   %st(0)
    1753:	0f 97 c0             	seta   %al
    1756:	84 c0                	test   %al,%al
    1758:	75 1c                	jne    1776 <_ZN3pix4math3expEe+0xa6>
    175a:	db 6d e0             	fldt   -0x20(%rbp)
    175d:	db 6d f0             	fldt   -0x10(%rbp)
    1760:	de c1                	faddp  %st,%st(1)
    1762:	db 7d e0             	fstpt  -0x20(%rbp)
    1765:	48 83 45 d8 01       	addq   $0x1,-0x28(%rbp)
    176a:	48 81 7d d8 3f 42 0f 	cmpq   $0xf423f,-0x28(%rbp)
    1771:	00 
    1772:	76 9d                	jbe    1711 <_ZN3pix4math3expEe+0x41>
    1774:	eb 01                	jmp    1777 <_ZN3pix4math3expEe+0xa7>
    1776:	90                   	nop
    1777:	80 7d d7 00          	cmpb   $0x0,-0x29(%rbp)
    177b:	74 09                	je     1786 <_ZN3pix4math3expEe+0xb6>
    177d:	d9 e8                	fld1   
    177f:	db 6d e0             	fldt   -0x20(%rbp)
    1782:	de f9                	fdivrp %st,%st(1)
    1784:	eb 03                	jmp    1789 <_ZN3pix4math3expEe+0xb9>
    1786:	db 6d e0             	fldt   -0x20(%rbp)
    1789:	c9                   	leave  
    178a:	c3                   	ret    

000000000000178b <_ZN3pix4math3powEee>:
    178b:	f3 0f 1e fa          	endbr64 
    178f:	55                   	push   %rbp
    1790:	48 89 e5             	mov    %rsp,%rbp
    1793:	48 83 ec 40          	sub    $0x40,%rsp
    1797:	db 6d 10             	fldt   0x10(%rbp)
    179a:	d9 ee                	fldz   
    179c:	df e9                	fucomip %st(1),%st
    179e:	dd d8                	fstp   %st(0)
    17a0:	7a 4c                	jp     17ee <_ZN3pix4math3powEee+0x63>
    17a2:	db 6d 10             	fldt   0x10(%rbp)
    17a5:	d9 ee                	fldz   
    17a7:	df e9                	fucomip %st(1),%st
    17a9:	dd d8                	fstp   %st(0)
    17ab:	75 41                	jne    17ee <_ZN3pix4math3powEee+0x63>
    17ad:	db 6d 20             	fldt   0x20(%rbp)
    17b0:	d9 ee                	fldz   
    17b2:	df e9                	fucomip %st(1),%st
    17b4:	dd d8                	fstp   %st(0)
    17b6:	7a 36                	jp     17ee <_ZN3pix4math3powEee+0x63>
    17b8:	db 6d 20             	fldt   0x20(%rbp)
    17bb:	d9 ee                	fldz   
    17bd:	df e9                	fucomip %st(1),%st
    17bf:	dd d8                	fstp   %st(0)
    17c1:	75 2b                	jne    17ee <_ZN3pix4math3powEee+0x63>
    17c3:	bf 08 00 00 00       	mov    $0x8,%edi
    17c8:	e8 53 f9 ff ff       	call   1120 <__cxa_allocate_exception@plt>
    17cd:	48 8d 15 66 19 00 00 	lea    0x1966(%rip),%rdx        # 313a <_ZL7STD_NaN+0x2a>
    17d4:	48 89 10             	mov    %rdx,(%rax)
    17d7:	ba 00 00 00 00       	mov    $0x0,%edx
    17dc:	48 8d 0d 2d 35 00 00 	lea    0x352d(%rip),%rcx        # 4d10 <_ZTIPKc@CXXABI_1.3>
    17e3:	48 89 ce             	mov    %rcx,%rsi
    17e6:	48 89 c7             	mov    %rax,%rdi
    17e9:	e8 d2 f9 ff ff       	call   11c0 <__cxa_throw@plt>
    17ee:	db 6d 10             	fldt   0x10(%rbp)
    17f1:	d9 ee                	fldz   
    17f3:	df e9                	fucomip %st(1),%st
    17f5:	dd d8                	fstp   %st(0)
    17f7:	7a 12                	jp     180b <_ZN3pix4math3powEee+0x80>
    17f9:	db 6d 10             	fldt   0x10(%rbp)
    17fc:	d9 ee                	fldz   
    17fe:	df e9                	fucomip %st(1),%st
    1800:	dd d8                	fstp   %st(0)
    1802:	75 07                	jne    180b <_ZN3pix4math3powEee+0x80>
    1804:	d9 ee                	fldz   
    1806:	e9 e5 01 00 00       	jmp    19f0 <_ZN3pix4math3powEee+0x265>
    180b:	db 6d 20             	fldt   0x20(%rbp)
    180e:	d9 ee                	fldz   
    1810:	df e9                	fucomip %st(1),%st
    1812:	dd d8                	fstp   %st(0)
    1814:	7a 12                	jp     1828 <_ZN3pix4math3powEee+0x9d>
    1816:	db 6d 20             	fldt   0x20(%rbp)
    1819:	d9 ee                	fldz   
    181b:	df e9                	fucomip %st(1),%st
    181d:	dd d8                	fstp   %st(0)
    181f:	75 07                	jne    1828 <_ZN3pix4math3powEee+0x9d>
    1821:	d9 e8                	fld1   
    1823:	e9 c8 01 00 00       	jmp    19f0 <_ZN3pix4math3powEee+0x265>
    1828:	db 6d 20             	fldt   0x20(%rbp)
    182b:	d9 e8                	fld1   
    182d:	df e9                	fucomip %st(1),%st
    182f:	dd d8                	fstp   %st(0)
    1831:	7a 13                	jp     1846 <_ZN3pix4math3powEee+0xbb>
    1833:	db 6d 20             	fldt   0x20(%rbp)
    1836:	d9 e8                	fld1   
    1838:	df e9                	fucomip %st(1),%st
    183a:	dd d8                	fstp   %st(0)
    183c:	75 08                	jne    1846 <_ZN3pix4math3powEee+0xbb>
    183e:	db 6d 10             	fldt   0x10(%rbp)
    1841:	e9 aa 01 00 00       	jmp    19f0 <_ZN3pix4math3powEee+0x265>
    1846:	db 6d 20             	fldt   0x20(%rbp)
    1849:	db 2d 01 1a 00 00    	fldt   0x1a01(%rip)        # 3250 <_ZN3pix8graphicsL7max_valE+0xac>
    184f:	df e9                	fucomip %st(1),%st
    1851:	dd d8                	fstp   %st(0)
    1853:	7a 19                	jp     186e <_ZN3pix4math3powEee+0xe3>
    1855:	db 6d 20             	fldt   0x20(%rbp)
    1858:	db 2d f2 19 00 00    	fldt   0x19f2(%rip)        # 3250 <_ZN3pix8graphicsL7max_valE+0xac>
    185e:	df e9                	fucomip %st(1),%st
    1860:	dd d8                	fstp   %st(0)
    1862:	75 0a                	jne    186e <_ZN3pix4math3powEee+0xe3>
    1864:	db 6d 10             	fldt   0x10(%rbp)
    1867:	d8 c8                	fmul   %st(0),%st
    1869:	e9 82 01 00 00       	jmp    19f0 <_ZN3pix4math3powEee+0x265>
    186e:	db 6d 20             	fldt   0x20(%rbp)
    1871:	d9 ee                	fldz   
    1873:	df f1                	fcomip %st(1),%st
    1875:	dd d8                	fstp   %st(0)
    1877:	0f 97 c0             	seta   %al
    187a:	88 45 ef             	mov    %al,-0x11(%rbp)
    187d:	ff 75 28             	push   0x28(%rbp)
    1880:	ff 75 20             	push   0x20(%rbp)
    1883:	e8 df 0d 00 00       	call   2667 <_ZN3pix4math3absIeEET_S2_>
    1888:	48 83 c4 10          	add    $0x10,%rsp
    188c:	db 7d 20             	fstpt  0x20(%rbp)
    188f:	db 6d 10             	fldt   0x10(%rbp)
    1892:	d9 e8                	fld1   
    1894:	d9 e0                	fchs   
    1896:	df e9                	fucomip %st(1),%st
    1898:	dd d8                	fstp   %st(0)
    189a:	7a 35                	jp     18d1 <_ZN3pix4math3powEee+0x146>
    189c:	db 6d 10             	fldt   0x10(%rbp)
    189f:	d9 e8                	fld1   
    18a1:	d9 e0                	fchs   
    18a3:	df e9                	fucomip %st(1),%st
    18a5:	dd d8                	fstp   %st(0)
    18a7:	75 28                	jne    18d1 <_ZN3pix4math3powEee+0x146>
    18a9:	ff 75 28             	push   0x28(%rbp)
    18ac:	ff 75 20             	push   0x20(%rbp)
    18af:	e8 d2 0d 00 00       	call   2686 <_ZN3pix4math5floorIeEET_S2_>
    18b4:	48 83 c4 10          	add    $0x10,%rsp
    18b8:	db 6d 20             	fldt   0x20(%rbp)
    18bb:	df e9                	fucomip %st(1),%st
    18bd:	7a 10                	jp     18cf <_ZN3pix4math3powEee+0x144>
    18bf:	db 6d 20             	fldt   0x20(%rbp)
    18c2:	df e9                	fucomip %st(1),%st
    18c4:	dd d8                	fstp   %st(0)
    18c6:	75 09                	jne    18d1 <_ZN3pix4math3powEee+0x146>
    18c8:	b8 01 00 00 00       	mov    $0x1,%eax
    18cd:	eb 07                	jmp    18d6 <_ZN3pix4math3powEee+0x14b>
    18cf:	dd d8                	fstp   %st(0)
    18d1:	b8 00 00 00 00       	mov    $0x0,%eax
    18d6:	84 c0                	test   %al,%al
    18d8:	74 36                	je     1910 <_ZN3pix4math3powEee+0x185>
    18da:	db 6d 20             	fldt   0x20(%rbp)
    18dd:	d9 7d de             	fnstcw -0x22(%rbp)
    18e0:	0f b7 45 de          	movzwl -0x22(%rbp),%eax
    18e4:	80 cc 0c             	or     $0xc,%ah
    18e7:	66 89 45 dc          	mov    %ax,-0x24(%rbp)
    18eb:	d9 6d dc             	fldcw  -0x24(%rbp)
    18ee:	df 7d c0             	fistpll -0x40(%rbp)
    18f1:	d9 6d de             	fldcw  -0x22(%rbp)
    18f4:	48 8b 45 c0          	mov    -0x40(%rbp),%rax
    18f8:	83 e0 01             	and    $0x1,%eax
    18fb:	48 85 c0             	test   %rax,%rax
    18fe:	75 07                	jne    1907 <_ZN3pix4math3powEee+0x17c>
    1900:	d9 e8                	fld1   
    1902:	e9 e9 00 00 00       	jmp    19f0 <_ZN3pix4math3powEee+0x265>
    1907:	d9 e8                	fld1   
    1909:	d9 e0                	fchs   
    190b:	e9 e0 00 00 00       	jmp    19f0 <_ZN3pix4math3powEee+0x265>
    1910:	ff 75 18             	push   0x18(%rbp)
    1913:	ff 75 10             	push   0x10(%rbp)
    1916:	e8 4c 0d 00 00       	call   2667 <_ZN3pix4math3absIeEET_S2_>
    191b:	48 83 c4 10          	add    $0x10,%rsp
    191f:	48 8d 64 24 f0       	lea    -0x10(%rsp),%rsp
    1924:	db 3c 24             	fstpt  (%rsp)
    1927:	e8 93 fc ff ff       	call   15bf <_ZN3pix4math3logEe>
    192c:	48 83 c4 10          	add    $0x10,%rsp
    1930:	db 6d 20             	fldt   0x20(%rbp)
    1933:	de c9                	fmulp  %st,%st(1)
    1935:	48 8d 64 24 f0       	lea    -0x10(%rsp),%rsp
    193a:	db 3c 24             	fstpt  (%rsp)
    193d:	e8 8e fd ff ff       	call   16d0 <_ZN3pix4math3expEe>
    1942:	48 83 c4 10          	add    $0x10,%rsp
    1946:	db 7d f0             	fstpt  -0x10(%rbp)
    1949:	80 7d ef 00          	cmpb   $0x0,-0x11(%rbp)
    194d:	74 0a                	je     1959 <_ZN3pix4math3powEee+0x1ce>
    194f:	d9 e8                	fld1   
    1951:	db 6d f0             	fldt   -0x10(%rbp)
    1954:	de f9                	fdivrp %st,%st(1)
    1956:	db 7d f0             	fstpt  -0x10(%rbp)
    1959:	db 6d 10             	fldt   0x10(%rbp)
    195c:	d9 ee                	fldz   
    195e:	df f1                	fcomip %st(1),%st
    1960:	dd d8                	fstp   %st(0)
    1962:	76 28                	jbe    198c <_ZN3pix4math3powEee+0x201>
    1964:	ff 75 28             	push   0x28(%rbp)
    1967:	ff 75 20             	push   0x20(%rbp)
    196a:	e8 17 0d 00 00       	call   2686 <_ZN3pix4math5floorIeEET_S2_>
    196f:	48 83 c4 10          	add    $0x10,%rsp
    1973:	db 6d 20             	fldt   0x20(%rbp)
    1976:	df e9                	fucomip %st(1),%st
    1978:	7a 10                	jp     198a <_ZN3pix4math3powEee+0x1ff>
    197a:	db 6d 20             	fldt   0x20(%rbp)
    197d:	df e9                	fucomip %st(1),%st
    197f:	dd d8                	fstp   %st(0)
    1981:	75 09                	jne    198c <_ZN3pix4math3powEee+0x201>
    1983:	b8 01 00 00 00       	mov    $0x1,%eax
    1988:	eb 07                	jmp    1991 <_ZN3pix4math3powEee+0x206>
    198a:	dd d8                	fstp   %st(0)
    198c:	b8 00 00 00 00       	mov    $0x0,%eax
    1991:	84 c0                	test   %al,%al
    1993:	74 3e                	je     19d3 <_ZN3pix4math3powEee+0x248>
    1995:	db 6d 20             	fldt   0x20(%rbp)
    1998:	d9 7d de             	fnstcw -0x22(%rbp)
    199b:	0f b7 45 de          	movzwl -0x22(%rbp),%eax
    199f:	80 cc 0c             	or     $0xc,%ah
    19a2:	66 89 45 dc          	mov    %ax,-0x24(%rbp)
    19a6:	d9 6d dc             	fldcw  -0x24(%rbp)
    19a9:	df 7d c0             	fistpll -0x40(%rbp)
    19ac:	d9 6d de             	fldcw  -0x22(%rbp)
    19af:	48 8b 45 c0          	mov    -0x40(%rbp),%rax
    19b3:	83 e0 01             	and    $0x1,%eax
    19b6:	48 85 c0             	test   %rax,%rax
    19b9:	74 32                	je     19ed <_ZN3pix4math3powEee+0x262>
    19bb:	db 6d f0             	fldt   -0x10(%rbp)
    19be:	d9 e0                	fchs   
    19c0:	db 7d c0             	fstpt  -0x40(%rbp)
    19c3:	48 8b 45 c0          	mov    -0x40(%rbp),%rax
    19c7:	8b 55 c8             	mov    -0x38(%rbp),%edx
    19ca:	48 89 45 f0          	mov    %rax,-0x10(%rbp)
    19ce:	89 55 f8             	mov    %edx,-0x8(%rbp)
    19d1:	eb 1a                	jmp    19ed <_ZN3pix4math3powEee+0x262>
    19d3:	db 6d 10             	fldt   0x10(%rbp)
    19d6:	d9 ee                	fldz   
    19d8:	df f1                	fcomip %st(1),%st
    19da:	dd d8                	fstp   %st(0)
    19dc:	76 0f                	jbe    19ed <_ZN3pix4math3powEee+0x262>
    19de:	e8 4c 0c 00 00       	call   262f <_ZN3pix4math3NaNEv>
    19e3:	f2 0f 11 45 c0       	movsd  %xmm0,-0x40(%rbp)
    19e8:	dd 45 c0             	fldl   -0x40(%rbp)
    19eb:	eb 03                	jmp    19f0 <_ZN3pix4math3powEee+0x265>
    19ed:	db 6d f0             	fldt   -0x10(%rbp)
    19f0:	c9                   	leave  
    19f1:	c3                   	ret    

00000000000019f2 <_ZN3pix4math4rootEee>:
    19f2:	f3 0f 1e fa          	endbr64 
    19f6:	55                   	push   %rbp
    19f7:	48 89 e5             	mov    %rsp,%rbp
    19fa:	48 83 ec 10          	sub    $0x10,%rsp
    19fe:	db 6d 10             	fldt   0x10(%rbp)
    1a01:	d9 ee                	fldz   
    1a03:	df f1                	fcomip %st(1),%st
    1a05:	dd d8                	fstp   %st(0)
    1a07:	76 2b                	jbe    1a34 <_ZN3pix4math4rootEee+0x42>
    1a09:	bf 08 00 00 00       	mov    $0x8,%edi
    1a0e:	e8 0d f7 ff ff       	call   1120 <__cxa_allocate_exception@plt>
    1a13:	48 8d 15 3a 17 00 00 	lea    0x173a(%rip),%rdx        # 3154 <_ZL7STD_NaN+0x44>
    1a1a:	48 89 10             	mov    %rdx,(%rax)
    1a1d:	ba 00 00 00 00       	mov    $0x0,%edx
    1a22:	48 8d 0d e7 32 00 00 	lea    0x32e7(%rip),%rcx        # 4d10 <_ZTIPKc@CXXABI_1.3>
    1a29:	48 89 ce             	mov    %rcx,%rsi
    1a2c:	48 89 c7             	mov    %rax,%rdi
    1a2f:	e8 8c f7 ff ff       	call   11c0 <__cxa_throw@plt>
    1a34:	db 6d 20             	fldt   0x20(%rbp)
    1a37:	d9 ee                	fldz   
    1a39:	df e9                	fucomip %st(1),%st
    1a3b:	dd d8                	fstp   %st(0)
    1a3d:	7a 36                	jp     1a75 <_ZN3pix4math4rootEee+0x83>
    1a3f:	db 6d 20             	fldt   0x20(%rbp)
    1a42:	d9 ee                	fldz   
    1a44:	df e9                	fucomip %st(1),%st
    1a46:	dd d8                	fstp   %st(0)
    1a48:	75 2b                	jne    1a75 <_ZN3pix4math4rootEee+0x83>
    1a4a:	bf 08 00 00 00       	mov    $0x8,%edi
    1a4f:	e8 cc f6 ff ff       	call   1120 <__cxa_allocate_exception@plt>
    1a54:	48 8d 15 17 17 00 00 	lea    0x1717(%rip),%rdx        # 3172 <_ZL7STD_NaN+0x62>
    1a5b:	48 89 10             	mov    %rdx,(%rax)
    1a5e:	ba 00 00 00 00       	mov    $0x0,%edx
    1a63:	48 8d 0d a6 32 00 00 	lea    0x32a6(%rip),%rcx        # 4d10 <_ZTIPKc@CXXABI_1.3>
    1a6a:	48 89 ce             	mov    %rcx,%rsi
    1a6d:	48 89 c7             	mov    %rax,%rdi
    1a70:	e8 4b f7 ff ff       	call   11c0 <__cxa_throw@plt>
    1a75:	db 6d 20             	fldt   0x20(%rbp)
    1a78:	d9 e8                	fld1   
    1a7a:	df e9                	fucomip %st(1),%st
    1a7c:	dd d8                	fstp   %st(0)
    1a7e:	7a 14                	jp     1a94 <_ZN3pix4math4rootEee+0xa2>
    1a80:	db 6d 20             	fldt   0x20(%rbp)
    1a83:	d9 e8                	fld1   
    1a85:	df e9                	fucomip %st(1),%st
    1a87:	dd d8                	fstp   %st(0)
    1a89:	75 09                	jne    1a94 <_ZN3pix4math4rootEee+0xa2>
    1a8b:	48 8b 45 10          	mov    0x10(%rbp),%rax
    1a8f:	8b 55 18             	mov    0x18(%rbp),%edx
    1a92:	eb 29                	jmp    1abd <_ZN3pix4math4rootEee+0xcb>
    1a94:	d9 e8                	fld1   
    1a96:	db 6d 20             	fldt   0x20(%rbp)
    1a99:	de f9                	fdivrp %st,%st(1)
    1a9b:	48 8d 64 24 f0       	lea    -0x10(%rsp),%rsp
    1aa0:	db 3c 24             	fstpt  (%rsp)
    1aa3:	ff 75 18             	push   0x18(%rbp)
    1aa6:	ff 75 10             	push   0x10(%rbp)
    1aa9:	e8 dd fc ff ff       	call   178b <_ZN3pix4math3powEee>
    1aae:	48 83 c4 20          	add    $0x20,%rsp
    1ab2:	db 7d f0             	fstpt  -0x10(%rbp)
    1ab5:	48 8b 45 f0          	mov    -0x10(%rbp),%rax
    1ab9:	8b 55 f8             	mov    -0x8(%rbp),%edx
    1abc:	90                   	nop
    1abd:	48 89 45 f0          	mov    %rax,-0x10(%rbp)
    1ac1:	89 55 f8             	mov    %edx,-0x8(%rbp)
    1ac4:	db 6d f0             	fldt   -0x10(%rbp)
    1ac7:	c9                   	leave  
    1ac8:	c3                   	ret    

0000000000001ac9 <_ZN3pix4math4trig3sinEe>:
    1ac9:	f3 0f 1e fa          	endbr64 
    1acd:	55                   	push   %rbp
    1ace:	48 89 e5             	mov    %rsp,%rbp
    1ad1:	48 83 ec 40          	sub    $0x40,%rsp
    1ad5:	db 6d 10             	fldt   0x10(%rbp)
    1ad8:	d9 ee                	fldz   
    1ada:	df f1                	fcomip %st(1),%st
    1adc:	dd d8                	fstp   %st(0)
    1ade:	0f 97 c0             	seta   %al
    1ae1:	88 45 d7             	mov    %al,-0x29(%rbp)
    1ae4:	ff 75 18             	push   0x18(%rbp)
    1ae7:	ff 75 10             	push   0x10(%rbp)
    1aea:	e8 78 0b 00 00       	call   2667 <_ZN3pix4math3absIeEET_S2_>
    1aef:	48 83 c4 10          	add    $0x10,%rsp
    1af3:	db 2d 67 17 00 00    	fldt   0x1767(%rip)        # 3260 <_ZN3pix8graphicsL7max_valE+0xbc>
    1af9:	48 8d 64 24 f0       	lea    -0x10(%rsp),%rsp
    1afe:	db 3c 24             	fstpt  (%rsp)
    1b01:	48 8d 64 24 f0       	lea    -0x10(%rsp),%rsp
    1b06:	db 3c 24             	fstpt  (%rsp)
    1b09:	e8 9f 0b 00 00       	call   26ad <_ZN3pix4math5f_modIeEET_S2_S2_>
    1b0e:	48 83 c4 20          	add    $0x20,%rsp
    1b12:	db 7d 10             	fstpt  0x10(%rbp)
    1b15:	db 6d 10             	fldt   0x10(%rbp)
    1b18:	db 7d e0             	fstpt  -0x20(%rbp)
    1b1b:	db 6d 10             	fldt   0x10(%rbp)
    1b1e:	db 7d f0             	fstpt  -0x10(%rbp)
    1b21:	db 6d 10             	fldt   0x10(%rbp)
    1b24:	d8 c8                	fmul   %st(0),%st
    1b26:	db 7d 10             	fstpt  0x10(%rbp)
    1b29:	48 c7 45 d8 00 00 00 	movq   $0x0,-0x28(%rbp)
    1b30:	00 
    1b31:	eb 6b                	jmp    1b9e <_ZN3pix4math4trig3sinEe+0xd5>
    1b33:	db 6d 10             	fldt   0x10(%rbp)
    1b36:	d9 e0                	fchs   
    1b38:	48 8b 45 d8          	mov    -0x28(%rbp),%rax
    1b3c:	48 8d 50 01          	lea    0x1(%rax),%rdx
    1b40:	48 8b 45 d8          	mov    -0x28(%rbp),%rax
    1b44:	48 c1 e0 02          	shl    $0x2,%rax
    1b48:	48 83 c0 06          	add    $0x6,%rax
    1b4c:	48 0f af c2          	imul   %rdx,%rax
    1b50:	48 89 45 c8          	mov    %rax,-0x38(%rbp)
    1b54:	df 6d c8             	fildll -0x38(%rbp)
    1b57:	48 85 c0             	test   %rax,%rax
    1b5a:	79 08                	jns    1b64 <_ZN3pix4math4trig3sinEe+0x9b>
    1b5c:	db 2d be 16 00 00    	fldt   0x16be(%rip)        # 3220 <_ZN3pix8graphicsL7max_valE+0x7c>
    1b62:	de c1                	faddp  %st,%st(1)
    1b64:	de f9                	fdivrp %st,%st(1)
    1b66:	db 6d e0             	fldt   -0x20(%rbp)
    1b69:	de c9                	fmulp  %st,%st(1)
    1b6b:	db 7d e0             	fstpt  -0x20(%rbp)
    1b6e:	ff 75 e8             	push   -0x18(%rbp)
    1b71:	ff 75 e0             	push   -0x20(%rbp)
    1b74:	e8 ee 0a 00 00       	call   2667 <_ZN3pix4math3absIeEET_S2_>
    1b79:	48 83 c4 10          	add    $0x10,%rsp
    1b7d:	db 2d bd 16 00 00    	fldt   0x16bd(%rip)        # 3240 <_ZN3pix8graphicsL7max_valE+0x9c>
    1b83:	df f1                	fcomip %st(1),%st
    1b85:	dd d8                	fstp   %st(0)
    1b87:	0f 97 c0             	seta   %al
    1b8a:	84 c0                	test   %al,%al
    1b8c:	75 1c                	jne    1baa <_ZN3pix4math4trig3sinEe+0xe1>
    1b8e:	db 6d f0             	fldt   -0x10(%rbp)
    1b91:	db 6d e0             	fldt   -0x20(%rbp)
    1b94:	de c1                	faddp  %st,%st(1)
    1b96:	db 7d f0             	fstpt  -0x10(%rbp)
    1b99:	48 83 45 d8 01       	addq   $0x1,-0x28(%rbp)
    1b9e:	48 81 7d d8 3f 42 0f 	cmpq   $0xf423f,-0x28(%rbp)
    1ba5:	00 
    1ba6:	76 8b                	jbe    1b33 <_ZN3pix4math4trig3sinEe+0x6a>
    1ba8:	eb 01                	jmp    1bab <_ZN3pix4math4trig3sinEe+0xe2>
    1baa:	90                   	nop
    1bab:	80 7d d7 00          	cmpb   $0x0,-0x29(%rbp)
    1baf:	74 07                	je     1bb8 <_ZN3pix4math4trig3sinEe+0xef>
    1bb1:	db 6d f0             	fldt   -0x10(%rbp)
    1bb4:	d9 e0                	fchs   
    1bb6:	eb 03                	jmp    1bbb <_ZN3pix4math4trig3sinEe+0xf2>
    1bb8:	db 6d f0             	fldt   -0x10(%rbp)
    1bbb:	c9                   	leave  
    1bbc:	c3                   	ret    

0000000000001bbd <_ZN3pix4math4trig3cosEe>:
    1bbd:	f3 0f 1e fa          	endbr64 
    1bc1:	55                   	push   %rbp
    1bc2:	48 89 e5             	mov    %rsp,%rbp
    1bc5:	48 83 ec 40          	sub    $0x40,%rsp
    1bc9:	ff 75 18             	push   0x18(%rbp)
    1bcc:	ff 75 10             	push   0x10(%rbp)
    1bcf:	e8 93 0a 00 00       	call   2667 <_ZN3pix4math3absIeEET_S2_>
    1bd4:	48 83 c4 10          	add    $0x10,%rsp
    1bd8:	db 2d 82 16 00 00    	fldt   0x1682(%rip)        # 3260 <_ZN3pix8graphicsL7max_valE+0xbc>
    1bde:	48 8d 64 24 f0       	lea    -0x10(%rsp),%rsp
    1be3:	db 3c 24             	fstpt  (%rsp)
    1be6:	48 8d 64 24 f0       	lea    -0x10(%rsp),%rsp
    1beb:	db 3c 24             	fstpt  (%rsp)
    1bee:	e8 ba 0a 00 00       	call   26ad <_ZN3pix4math5f_modIeEET_S2_S2_>
    1bf3:	48 83 c4 20          	add    $0x20,%rsp
    1bf7:	db 7d 10             	fstpt  0x10(%rbp)
    1bfa:	d9 e8                	fld1   
    1bfc:	db 7d e0             	fstpt  -0x20(%rbp)
    1bff:	d9 e8                	fld1   
    1c01:	db 7d f0             	fstpt  -0x10(%rbp)
    1c04:	db 6d 10             	fldt   0x10(%rbp)
    1c07:	d8 c8                	fmul   %st(0),%st
    1c09:	db 7d 10             	fstpt  0x10(%rbp)
    1c0c:	48 c7 45 d8 01 00 00 	movq   $0x1,-0x28(%rbp)
    1c13:	00 
    1c14:	eb 64                	jmp    1c7a <_ZN3pix4math4trig3cosEe+0xbd>
    1c16:	db 6d 10             	fldt   0x10(%rbp)
    1c19:	d9 e0                	fchs   
    1c1b:	48 8b 45 d8          	mov    -0x28(%rbp),%rax
    1c1f:	48 c1 e0 02          	shl    $0x2,%rax
    1c23:	48 83 e8 02          	sub    $0x2,%rax
    1c27:	48 0f af 45 d8       	imul   -0x28(%rbp),%rax
    1c2c:	48 89 45 c8          	mov    %rax,-0x38(%rbp)
    1c30:	df 6d c8             	fildll -0x38(%rbp)
    1c33:	48 85 c0             	test   %rax,%rax
    1c36:	79 08                	jns    1c40 <_ZN3pix4math4trig3cosEe+0x83>
    1c38:	db 2d e2 15 00 00    	fldt   0x15e2(%rip)        # 3220 <_ZN3pix8graphicsL7max_valE+0x7c>
    1c3e:	de c1                	faddp  %st,%st(1)
    1c40:	de f9                	fdivrp %st,%st(1)
    1c42:	db 6d e0             	fldt   -0x20(%rbp)
    1c45:	de c9                	fmulp  %st,%st(1)
    1c47:	db 7d e0             	fstpt  -0x20(%rbp)
    1c4a:	ff 75 e8             	push   -0x18(%rbp)
    1c4d:	ff 75 e0             	push   -0x20(%rbp)
    1c50:	e8 12 0a 00 00       	call   2667 <_ZN3pix4math3absIeEET_S2_>
    1c55:	48 83 c4 10          	add    $0x10,%rsp
    1c59:	db 2d e1 15 00 00    	fldt   0x15e1(%rip)        # 3240 <_ZN3pix8graphicsL7max_valE+0x9c>
    1c5f:	df f1                	fcomip %st(1),%st
    1c61:	dd d8                	fstp   %st(0)
    1c63:	0f 97 c0             	seta   %al
    1c66:	84 c0                	test   %al,%al
    1c68:	75 1c                	jne    1c86 <_ZN3pix4math4trig3cosEe+0xc9>
    1c6a:	db 6d f0             	fldt   -0x10(%rbp)
    1c6d:	db 6d e0             	fldt   -0x20(%rbp)
    1c70:	de c1                	faddp  %st,%st(1)
    1c72:	db 7d f0             	fstpt  -0x10(%rbp)
    1c75:	48 83 45 d8 01       	addq   $0x1,-0x28(%rbp)
    1c7a:	48 81 7d d8 40 42 0f 	cmpq   $0xf4240,-0x28(%rbp)
    1c81:	00 
    1c82:	76 92                	jbe    1c16 <_ZN3pix4math4trig3cosEe+0x59>
    1c84:	eb 01                	jmp    1c87 <_ZN3pix4math4trig3cosEe+0xca>
    1c86:	90                   	nop
    1c87:	db 6d f0             	fldt   -0x10(%rbp)
    1c8a:	c9                   	leave  
    1c8b:	c3                   	ret    

0000000000001c8c <_ZN3pix4math4trig3tanEe>:
    1c8c:	f3 0f 1e fa          	endbr64 
    1c90:	55                   	push   %rbp
    1c91:	48 89 e5             	mov    %rsp,%rbp
    1c94:	48 83 ec 10          	sub    $0x10,%rsp
    1c98:	ff 75 18             	push   0x18(%rbp)
    1c9b:	ff 75 10             	push   0x10(%rbp)
    1c9e:	e8 26 fe ff ff       	call   1ac9 <_ZN3pix4math4trig3sinEe>
    1ca3:	48 83 c4 10          	add    $0x10,%rsp
    1ca7:	db 7d f0             	fstpt  -0x10(%rbp)
    1caa:	ff 75 18             	push   0x18(%rbp)
    1cad:	ff 75 10             	push   0x10(%rbp)
    1cb0:	e8 08 ff ff ff       	call   1bbd <_ZN3pix4math4trig3cosEe>
    1cb5:	48 83 c4 10          	add    $0x10,%rsp
    1cb9:	db 6d f0             	fldt   -0x10(%rbp)
    1cbc:	de f1                	fdivp  %st,%st(1)
    1cbe:	c9                   	leave  
    1cbf:	c3                   	ret    

0000000000001cc0 <_ZN3pix4math4trig3secEe>:
    1cc0:	f3 0f 1e fa          	endbr64 
    1cc4:	55                   	push   %rbp
    1cc5:	48 89 e5             	mov    %rsp,%rbp
    1cc8:	ff 75 18             	push   0x18(%rbp)
    1ccb:	ff 75 10             	push   0x10(%rbp)
    1cce:	e8 ea fe ff ff       	call   1bbd <_ZN3pix4math4trig3cosEe>
    1cd3:	48 83 c4 10          	add    $0x10,%rsp
    1cd7:	d9 e8                	fld1   
    1cd9:	de f1                	fdivp  %st,%st(1)
    1cdb:	c9                   	leave  
    1cdc:	c3                   	ret    

0000000000001cdd <_ZN3pix4math4trig3cscEe>:
    1cdd:	f3 0f 1e fa          	endbr64 
    1ce1:	55                   	push   %rbp
    1ce2:	48 89 e5             	mov    %rsp,%rbp
    1ce5:	ff 75 18             	push   0x18(%rbp)
    1ce8:	ff 75 10             	push   0x10(%rbp)
    1ceb:	e8 d9 fd ff ff       	call   1ac9 <_ZN3pix4math4trig3sinEe>
    1cf0:	48 83 c4 10          	add    $0x10,%rsp
    1cf4:	d9 e8                	fld1   
    1cf6:	de f1                	fdivp  %st,%st(1)
    1cf8:	c9                   	leave  
    1cf9:	c3                   	ret    

0000000000001cfa <_ZN3pix4math4trig3cotEe>:
    1cfa:	f3 0f 1e fa          	endbr64 
    1cfe:	55                   	push   %rbp
    1cff:	48 89 e5             	mov    %rsp,%rbp
    1d02:	48 83 ec 10          	sub    $0x10,%rsp
    1d06:	ff 75 18             	push   0x18(%rbp)
    1d09:	ff 75 10             	push   0x10(%rbp)
    1d0c:	e8 ac fe ff ff       	call   1bbd <_ZN3pix4math4trig3cosEe>
    1d11:	48 83 c4 10          	add    $0x10,%rsp
    1d15:	db 7d f0             	fstpt  -0x10(%rbp)
    1d18:	ff 75 18             	push   0x18(%rbp)
    1d1b:	ff 75 10             	push   0x10(%rbp)
    1d1e:	e8 a6 fd ff ff       	call   1ac9 <_ZN3pix4math4trig3sinEe>
    1d23:	48 83 c4 10          	add    $0x10,%rsp
    1d27:	db 6d f0             	fldt   -0x10(%rbp)
    1d2a:	de f1                	fdivp  %st,%st(1)
    1d2c:	c9                   	leave  
    1d2d:	c3                   	ret    

0000000000001d2e <_ZN3pix4math4trig6arcsinEe>:
    1d2e:	f3 0f 1e fa          	endbr64 
    1d32:	55                   	push   %rbp
    1d33:	48 89 e5             	mov    %rsp,%rbp
    1d36:	48 83 ec 40          	sub    $0x40,%rsp
    1d3a:	d9 e8                	fld1   
    1d3c:	d9 e0                	fchs   
    1d3e:	db 6d 10             	fldt   0x10(%rbp)
    1d41:	d9 c9                	fxch   %st(1)
    1d43:	df f1                	fcomip %st(1),%st
    1d45:	dd d8                	fstp   %st(0)
    1d47:	77 0b                	ja     1d54 <_ZN3pix4math4trig6arcsinEe+0x26>
    1d49:	d9 e8                	fld1   
    1d4b:	db 6d 10             	fldt   0x10(%rbp)
    1d4e:	df f1                	fcomip %st(1),%st
    1d50:	dd d8                	fstp   %st(0)
    1d52:	76 2b                	jbe    1d7f <_ZN3pix4math4trig6arcsinEe+0x51>
    1d54:	bf 08 00 00 00       	mov    $0x8,%edi
    1d59:	e8 c2 f3 ff ff       	call   1120 <__cxa_allocate_exception@plt>
    1d5e:	48 8d 15 24 14 00 00 	lea    0x1424(%rip),%rdx        # 3189 <_ZL7STD_NaN+0x79>
    1d65:	48 89 10             	mov    %rdx,(%rax)
    1d68:	ba 00 00 00 00       	mov    $0x0,%edx
    1d6d:	48 8d 0d 9c 2f 00 00 	lea    0x2f9c(%rip),%rcx        # 4d10 <_ZTIPKc@CXXABI_1.3>
    1d74:	48 89 ce             	mov    %rcx,%rsi
    1d77:	48 89 c7             	mov    %rax,%rdi
    1d7a:	e8 41 f4 ff ff       	call   11c0 <__cxa_throw@plt>
    1d7f:	db 6d 10             	fldt   0x10(%rbp)
    1d82:	d9 ee                	fldz   
    1d84:	df f1                	fcomip %st(1),%st
    1d86:	dd d8                	fstp   %st(0)
    1d88:	0f 97 c0             	seta   %al
    1d8b:	88 45 d7             	mov    %al,-0x29(%rbp)
    1d8e:	ff 75 18             	push   0x18(%rbp)
    1d91:	ff 75 10             	push   0x10(%rbp)
    1d94:	e8 ce 08 00 00       	call   2667 <_ZN3pix4math3absIeEET_S2_>
    1d99:	48 83 c4 10          	add    $0x10,%rsp
    1d9d:	db 7d 10             	fstpt  0x10(%rbp)
    1da0:	db 6d 10             	fldt   0x10(%rbp)
    1da3:	db 7d e0             	fstpt  -0x20(%rbp)
    1da6:	db 6d 10             	fldt   0x10(%rbp)
    1da9:	db 7d f0             	fstpt  -0x10(%rbp)
    1dac:	db 6d 10             	fldt   0x10(%rbp)
    1daf:	d8 c8                	fmul   %st(0),%st
    1db1:	db 7d 10             	fstpt  0x10(%rbp)
    1db4:	48 c7 45 d8 00 00 00 	movq   $0x0,-0x28(%rbp)
    1dbb:	00 
    1dbc:	e9 ce 00 00 00       	jmp    1e8f <_ZN3pix4math4trig6arcsinEe+0x161>
    1dc1:	db 6d 10             	fldt   0x10(%rbp)
    1dc4:	db 2d a6 14 00 00    	fldt   0x14a6(%rip)        # 3270 <_ZN3pix8graphicsL7max_valE+0xcc>
    1dca:	de c9                	fmulp  %st,%st(1)
    1dcc:	48 8b 45 d8          	mov    -0x28(%rbp),%rax
    1dd0:	48 83 c0 01          	add    $0x1,%rax
    1dd4:	48 01 c0             	add    %rax,%rax
    1dd7:	48 89 45 c8          	mov    %rax,-0x38(%rbp)
    1ddb:	df 6d c8             	fildll -0x38(%rbp)
    1dde:	48 85 c0             	test   %rax,%rax
    1de1:	79 08                	jns    1deb <_ZN3pix4math4trig6arcsinEe+0xbd>
    1de3:	db 2d 37 14 00 00    	fldt   0x1437(%rip)        # 3220 <_ZN3pix8graphicsL7max_valE+0x7c>
    1de9:	de c1                	faddp  %st,%st(1)
    1deb:	de c9                	fmulp  %st,%st(1)
    1ded:	48 8b 45 d8          	mov    -0x28(%rbp),%rax
    1df1:	48 01 c0             	add    %rax,%rax
    1df4:	48 83 c0 01          	add    $0x1,%rax
    1df8:	48 89 45 c8          	mov    %rax,-0x38(%rbp)
    1dfc:	df 6d c8             	fildll -0x38(%rbp)
    1dff:	48 85 c0             	test   %rax,%rax
    1e02:	79 08                	jns    1e0c <_ZN3pix4math4trig6arcsinEe+0xde>
    1e04:	db 2d 16 14 00 00    	fldt   0x1416(%rip)        # 3220 <_ZN3pix8graphicsL7max_valE+0x7c>
    1e0a:	de c1                	faddp  %st,%st(1)
    1e0c:	de c9                	fmulp  %st,%st(1)
    1e0e:	48 8b 45 d8          	mov    -0x28(%rbp),%rax
    1e12:	48 01 c0             	add    %rax,%rax
    1e15:	48 83 c0 01          	add    $0x1,%rax
    1e19:	48 89 45 c8          	mov    %rax,-0x38(%rbp)
    1e1d:	df 6d c8             	fildll -0x38(%rbp)
    1e20:	48 85 c0             	test   %rax,%rax
    1e23:	79 08                	jns    1e2d <_ZN3pix4math4trig6arcsinEe+0xff>
    1e25:	db 2d f5 13 00 00    	fldt   0x13f5(%rip)        # 3220 <_ZN3pix8graphicsL7max_valE+0x7c>
    1e2b:	de c1                	faddp  %st,%st(1)
    1e2d:	de c9                	fmulp  %st,%st(1)
    1e2f:	48 8b 45 d8          	mov    -0x28(%rbp),%rax
    1e33:	48 01 c0             	add    %rax,%rax
    1e36:	48 8d 50 03          	lea    0x3(%rax),%rdx
    1e3a:	48 8b 45 d8          	mov    -0x28(%rbp),%rax
    1e3e:	48 83 c0 01          	add    $0x1,%rax
    1e42:	48 0f af c2          	imul   %rdx,%rax
    1e46:	48 8b 55 d8          	mov    -0x28(%rbp),%rdx
    1e4a:	48 83 c2 01          	add    $0x1,%rdx
    1e4e:	48 0f af c2          	imul   %rdx,%rax
    1e52:	48 89 45 c8          	mov    %rax,-0x38(%rbp)
    1e56:	df 6d c8             	fildll -0x38(%rbp)
    1e59:	48 85 c0             	test   %rax,%rax
    1e5c:	79 08                	jns    1e66 <_ZN3pix4math4trig6arcsinEe+0x138>
    1e5e:	db 2d bc 13 00 00    	fldt   0x13bc(%rip)        # 3220 <_ZN3pix8graphicsL7max_valE+0x7c>
    1e64:	de c1                	faddp  %st,%st(1)
    1e66:	de f9                	fdivrp %st,%st(1)
    1e68:	db 6d e0             	fldt   -0x20(%rbp)
    1e6b:	de c9                	fmulp  %st,%st(1)
    1e6d:	db 7d e0             	fstpt  -0x20(%rbp)
    1e70:	db 6d e0             	fldt   -0x20(%rbp)
    1e73:	db 2d c7 13 00 00    	fldt   0x13c7(%rip)        # 3240 <_ZN3pix8graphicsL7max_valE+0x9c>
    1e79:	df f1                	fcomip %st(1),%st
    1e7b:	dd d8                	fstp   %st(0)
    1e7d:	77 20                	ja     1e9f <_ZN3pix4math4trig6arcsinEe+0x171>
    1e7f:	db 6d f0             	fldt   -0x10(%rbp)
    1e82:	db 6d e0             	fldt   -0x20(%rbp)
    1e85:	de c1                	faddp  %st,%st(1)
    1e87:	db 7d f0             	fstpt  -0x10(%rbp)
    1e8a:	48 83 45 d8 01       	addq   $0x1,-0x28(%rbp)
    1e8f:	48 81 7d d8 3f 42 0f 	cmpq   $0xf423f,-0x28(%rbp)
    1e96:	00 
    1e97:	0f 86 24 ff ff ff    	jbe    1dc1 <_ZN3pix4math4trig6arcsinEe+0x93>
    1e9d:	eb 01                	jmp    1ea0 <_ZN3pix4math4trig6arcsinEe+0x172>
    1e9f:	90                   	nop
    1ea0:	80 7d d7 00          	cmpb   $0x0,-0x29(%rbp)
    1ea4:	74 07                	je     1ead <_ZN3pix4math4trig6arcsinEe+0x17f>
    1ea6:	db 6d f0             	fldt   -0x10(%rbp)
    1ea9:	d9 e0                	fchs   
    1eab:	eb 03                	jmp    1eb0 <_ZN3pix4math4trig6arcsinEe+0x182>
    1ead:	db 6d f0             	fldt   -0x10(%rbp)
    1eb0:	c9                   	leave  
    1eb1:	c3                   	ret    

0000000000001eb2 <_ZN3pix4math4trig6arccosEe>:
    1eb2:	f3 0f 1e fa          	endbr64 
    1eb6:	55                   	push   %rbp
    1eb7:	48 89 e5             	mov    %rsp,%rbp
    1eba:	ff 75 18             	push   0x18(%rbp)
    1ebd:	ff 75 10             	push   0x10(%rbp)
    1ec0:	e8 69 fe ff ff       	call   1d2e <_ZN3pix4math4trig6arcsinEe>
    1ec5:	48 83 c4 10          	add    $0x10,%rsp
    1ec9:	db 2d b1 13 00 00    	fldt   0x13b1(%rip)        # 3280 <_ZN3pix8graphicsL7max_valE+0xdc>
    1ecf:	de e1                	fsubp  %st,%st(1)
    1ed1:	c9                   	leave  
    1ed2:	c3                   	ret    

0000000000001ed3 <_ZN3pix4math4trig6arctanEe>:
    1ed3:	f3 0f 1e fa          	endbr64 
    1ed7:	55                   	push   %rbp
    1ed8:	48 89 e5             	mov    %rsp,%rbp
    1edb:	48 83 ec 40          	sub    $0x40,%rsp
    1edf:	ff 75 18             	push   0x18(%rbp)
    1ee2:	ff 75 10             	push   0x10(%rbp)
    1ee5:	e8 7d 07 00 00       	call   2667 <_ZN3pix4math3absIeEET_S2_>
    1eea:	48 83 c4 10          	add    $0x10,%rsp
    1eee:	d9 e8                	fld1   
    1ef0:	d9 c9                	fxch   %st(1)
    1ef2:	df f1                	fcomip %st(1),%st
    1ef4:	dd d8                	fstp   %st(0)
    1ef6:	0f 97 c0             	seta   %al
    1ef9:	84 c0                	test   %al,%al
    1efb:	74 25                	je     1f22 <_ZN3pix4math4trig6arctanEe+0x4f>
    1efd:	d9 e8                	fld1   
    1eff:	db 6d 10             	fldt   0x10(%rbp)
    1f02:	de f9                	fdivrp %st,%st(1)
    1f04:	48 8d 64 24 f0       	lea    -0x10(%rsp),%rsp
    1f09:	db 3c 24             	fstpt  (%rsp)
    1f0c:	e8 c2 ff ff ff       	call   1ed3 <_ZN3pix4math4trig6arctanEe>
    1f11:	48 83 c4 10          	add    $0x10,%rsp
    1f15:	db 2d 65 13 00 00    	fldt   0x1365(%rip)        # 3280 <_ZN3pix8graphicsL7max_valE+0xdc>
    1f1b:	de e1                	fsubp  %st,%st(1)
    1f1d:	e9 df 00 00 00       	jmp    2001 <_ZN3pix4math4trig6arctanEe+0x12e>
    1f22:	db 6d 10             	fldt   0x10(%rbp)
    1f25:	d9 ee                	fldz   
    1f27:	df f1                	fcomip %st(1),%st
    1f29:	dd d8                	fstp   %st(0)
    1f2b:	0f 97 c0             	seta   %al
    1f2e:	88 45 d7             	mov    %al,-0x29(%rbp)
    1f31:	ff 75 18             	push   0x18(%rbp)
    1f34:	ff 75 10             	push   0x10(%rbp)
    1f37:	e8 2b 07 00 00       	call   2667 <_ZN3pix4math3absIeEET_S2_>
    1f3c:	48 83 c4 10          	add    $0x10,%rsp
    1f40:	db 7d 10             	fstpt  0x10(%rbp)
    1f43:	db 6d 10             	fldt   0x10(%rbp)
    1f46:	db 7d e0             	fstpt  -0x20(%rbp)
    1f49:	db 6d 10             	fldt   0x10(%rbp)
    1f4c:	db 7d f0             	fstpt  -0x10(%rbp)
    1f4f:	db 6d 10             	fldt   0x10(%rbp)
    1f52:	d8 c8                	fmul   %st(0),%st
    1f54:	db 7d 10             	fstpt  0x10(%rbp)
    1f57:	48 c7 45 d8 00 00 00 	movq   $0x0,-0x28(%rbp)
    1f5e:	00 
    1f5f:	eb 7f                	jmp    1fe0 <_ZN3pix4math4trig6arctanEe+0x10d>
    1f61:	db 6d 10             	fldt   0x10(%rbp)
    1f64:	d9 e0                	fchs   
    1f66:	48 8b 45 d8          	mov    -0x28(%rbp),%rax
    1f6a:	48 01 c0             	add    %rax,%rax
    1f6d:	48 83 c0 01          	add    $0x1,%rax
    1f71:	48 89 45 c8          	mov    %rax,-0x38(%rbp)
    1f75:	df 6d c8             	fildll -0x38(%rbp)
    1f78:	48 85 c0             	test   %rax,%rax
    1f7b:	79 08                	jns    1f85 <_ZN3pix4math4trig6arctanEe+0xb2>
    1f7d:	db 2d 9d 12 00 00    	fldt   0x129d(%rip)        # 3220 <_ZN3pix8graphicsL7max_valE+0x7c>
    1f83:	de c1                	faddp  %st,%st(1)
    1f85:	de c9                	fmulp  %st,%st(1)
    1f87:	48 8b 45 d8          	mov    -0x28(%rbp),%rax
    1f8b:	48 01 c0             	add    %rax,%rax
    1f8e:	48 83 c0 03          	add    $0x3,%rax
    1f92:	48 89 45 c8          	mov    %rax,-0x38(%rbp)
    1f96:	df 6d c8             	fildll -0x38(%rbp)
    1f99:	48 85 c0             	test   %rax,%rax
    1f9c:	79 08                	jns    1fa6 <_ZN3pix4math4trig6arctanEe+0xd3>
    1f9e:	db 2d 7c 12 00 00    	fldt   0x127c(%rip)        # 3220 <_ZN3pix8graphicsL7max_valE+0x7c>
    1fa4:	de c1                	faddp  %st,%st(1)
    1fa6:	de f9                	fdivrp %st,%st(1)
    1fa8:	db 6d e0             	fldt   -0x20(%rbp)
    1fab:	de c9                	fmulp  %st,%st(1)
    1fad:	db 7d e0             	fstpt  -0x20(%rbp)
    1fb0:	ff 75 e8             	push   -0x18(%rbp)
    1fb3:	ff 75 e0             	push   -0x20(%rbp)
    1fb6:	e8 ac 06 00 00       	call   2667 <_ZN3pix4math3absIeEET_S2_>
    1fbb:	48 83 c4 10          	add    $0x10,%rsp
    1fbf:	db 2d 7b 12 00 00    	fldt   0x127b(%rip)        # 3240 <_ZN3pix8graphicsL7max_valE+0x9c>
    1fc5:	df f1                	fcomip %st(1),%st
    1fc7:	dd d8                	fstp   %st(0)
    1fc9:	0f 97 c0             	seta   %al
    1fcc:	84 c0                	test   %al,%al
    1fce:	75 20                	jne    1ff0 <_ZN3pix4math4trig6arctanEe+0x11d>
    1fd0:	db 6d f0             	fldt   -0x10(%rbp)
    1fd3:	db 6d e0             	fldt   -0x20(%rbp)
    1fd6:	de c1                	faddp  %st,%st(1)
    1fd8:	db 7d f0             	fstpt  -0x10(%rbp)
    1fdb:	48 83 45 d8 01       	addq   $0x1,-0x28(%rbp)
    1fe0:	48 81 7d d8 3f 42 0f 	cmpq   $0xf423f,-0x28(%rbp)
    1fe7:	00 
    1fe8:	0f 86 73 ff ff ff    	jbe    1f61 <_ZN3pix4math4trig6arctanEe+0x8e>
    1fee:	eb 01                	jmp    1ff1 <_ZN3pix4math4trig6arctanEe+0x11e>
    1ff0:	90                   	nop
    1ff1:	80 7d d7 00          	cmpb   $0x0,-0x29(%rbp)
    1ff5:	74 07                	je     1ffe <_ZN3pix4math4trig6arctanEe+0x12b>
    1ff7:	db 6d f0             	fldt   -0x10(%rbp)
    1ffa:	d9 e0                	fchs   
    1ffc:	eb 03                	jmp    2001 <_ZN3pix4math4trig6arctanEe+0x12e>
    1ffe:	db 6d f0             	fldt   -0x10(%rbp)
    2001:	c9                   	leave  
    2002:	c3                   	ret    

0000000000002003 <_ZN3pix4math5hyper4sinhEe>:
    2003:	f3 0f 1e fa          	endbr64 
    2007:	55                   	push   %rbp
    2008:	48 89 e5             	mov    %rsp,%rbp
    200b:	48 83 ec 40          	sub    $0x40,%rsp
    200f:	db 6d 10             	fldt   0x10(%rbp)
    2012:	db 7d e0             	fstpt  -0x20(%rbp)
    2015:	db 6d 10             	fldt   0x10(%rbp)
    2018:	db 7d f0             	fstpt  -0x10(%rbp)
    201b:	db 6d 10             	fldt   0x10(%rbp)
    201e:	d8 c8                	fmul   %st(0),%st
    2020:	db 7d 10             	fstpt  0x10(%rbp)
    2023:	48 c7 45 d8 00 00 00 	movq   $0x0,-0x28(%rbp)
    202a:	00 
    202b:	eb 69                	jmp    2096 <_ZN3pix4math5hyper4sinhEe+0x93>
    202d:	48 8b 45 d8          	mov    -0x28(%rbp),%rax
    2031:	48 8d 50 01          	lea    0x1(%rax),%rdx
    2035:	48 8b 45 d8          	mov    -0x28(%rbp),%rax
    2039:	48 c1 e0 02          	shl    $0x2,%rax
    203d:	48 83 c0 06          	add    $0x6,%rax
    2041:	48 0f af c2          	imul   %rdx,%rax
    2045:	48 89 45 c8          	mov    %rax,-0x38(%rbp)
    2049:	df 6d c8             	fildll -0x38(%rbp)
    204c:	48 85 c0             	test   %rax,%rax
    204f:	79 08                	jns    2059 <_ZN3pix4math5hyper4sinhEe+0x56>
    2051:	db 2d c9 11 00 00    	fldt   0x11c9(%rip)        # 3220 <_ZN3pix8graphicsL7max_valE+0x7c>
    2057:	de c1                	faddp  %st,%st(1)
    2059:	db 6d 10             	fldt   0x10(%rbp)
    205c:	de f1                	fdivp  %st,%st(1)
    205e:	db 6d e0             	fldt   -0x20(%rbp)
    2061:	de c9                	fmulp  %st,%st(1)
    2063:	db 7d e0             	fstpt  -0x20(%rbp)
    2066:	ff 75 e8             	push   -0x18(%rbp)
    2069:	ff 75 e0             	push   -0x20(%rbp)
    206c:	e8 f6 05 00 00       	call   2667 <_ZN3pix4math3absIeEET_S2_>
    2071:	48 83 c4 10          	add    $0x10,%rsp
    2075:	db 2d c5 11 00 00    	fldt   0x11c5(%rip)        # 3240 <_ZN3pix8graphicsL7max_valE+0x9c>
    207b:	df f1                	fcomip %st(1),%st
    207d:	dd d8                	fstp   %st(0)
    207f:	0f 97 c0             	seta   %al
    2082:	84 c0                	test   %al,%al
    2084:	75 1c                	jne    20a2 <_ZN3pix4math5hyper4sinhEe+0x9f>
    2086:	db 6d f0             	fldt   -0x10(%rbp)
    2089:	db 6d e0             	fldt   -0x20(%rbp)
    208c:	de c1                	faddp  %st,%st(1)
    208e:	db 7d f0             	fstpt  -0x10(%rbp)
    2091:	48 83 45 d8 01       	addq   $0x1,-0x28(%rbp)
    2096:	48 81 7d d8 3f 42 0f 	cmpq   $0xf423f,-0x28(%rbp)
    209d:	00 
    209e:	76 8d                	jbe    202d <_ZN3pix4math5hyper4sinhEe+0x2a>
    20a0:	eb 01                	jmp    20a3 <_ZN3pix4math5hyper4sinhEe+0xa0>
    20a2:	90                   	nop
    20a3:	db 6d f0             	fldt   -0x10(%rbp)
    20a6:	c9                   	leave  
    20a7:	c3                   	ret    

00000000000020a8 <_ZN3pix4math5hyper4coshEe>:
    20a8:	f3 0f 1e fa          	endbr64 
    20ac:	55                   	push   %rbp
    20ad:	48 89 e5             	mov    %rsp,%rbp
    20b0:	48 83 ec 40          	sub    $0x40,%rsp
    20b4:	d9 e8                	fld1   
    20b6:	db 7d e0             	fstpt  -0x20(%rbp)
    20b9:	d9 e8                	fld1   
    20bb:	db 7d f0             	fstpt  -0x10(%rbp)
    20be:	db 6d 10             	fldt   0x10(%rbp)
    20c1:	d8 c8                	fmul   %st(0),%st
    20c3:	db 7d 10             	fstpt  0x10(%rbp)
    20c6:	48 c7 45 d8 00 00 00 	movq   $0x0,-0x28(%rbp)
    20cd:	00 
    20ce:	eb 69                	jmp    2139 <_ZN3pix4math5hyper4coshEe+0x91>
    20d0:	48 8b 45 d8          	mov    -0x28(%rbp),%rax
    20d4:	48 8d 50 01          	lea    0x1(%rax),%rdx
    20d8:	48 8b 45 d8          	mov    -0x28(%rbp),%rax
    20dc:	48 c1 e0 02          	shl    $0x2,%rax
    20e0:	48 83 c0 02          	add    $0x2,%rax
    20e4:	48 0f af c2          	imul   %rdx,%rax
    20e8:	48 89 45 c8          	mov    %rax,-0x38(%rbp)
    20ec:	df 6d c8             	fildll -0x38(%rbp)
    20ef:	48 85 c0             	test   %rax,%rax
    20f2:	79 08                	jns    20fc <_ZN3pix4math5hyper4coshEe+0x54>
    20f4:	db 2d 26 11 00 00    	fldt   0x1126(%rip)        # 3220 <_ZN3pix8graphicsL7max_valE+0x7c>
    20fa:	de c1                	faddp  %st,%st(1)
    20fc:	db 6d 10             	fldt   0x10(%rbp)
    20ff:	de f1                	fdivp  %st,%st(1)
    2101:	db 6d e0             	fldt   -0x20(%rbp)
    2104:	de c9                	fmulp  %st,%st(1)
    2106:	db 7d e0             	fstpt  -0x20(%rbp)
    2109:	ff 75 e8             	push   -0x18(%rbp)
    210c:	ff 75 e0             	push   -0x20(%rbp)
    210f:	e8 53 05 00 00       	call   2667 <_ZN3pix4math3absIeEET_S2_>
    2114:	48 83 c4 10          	add    $0x10,%rsp
    2118:	db 2d 22 11 00 00    	fldt   0x1122(%rip)        # 3240 <_ZN3pix8graphicsL7max_valE+0x9c>
    211e:	df f1                	fcomip %st(1),%st
    2120:	dd d8                	fstp   %st(0)
    2122:	0f 97 c0             	seta   %al
    2125:	84 c0                	test   %al,%al
    2127:	75 1c                	jne    2145 <_ZN3pix4math5hyper4coshEe+0x9d>
    2129:	db 6d f0             	fldt   -0x10(%rbp)
    212c:	db 6d e0             	fldt   -0x20(%rbp)
    212f:	de c1                	faddp  %st,%st(1)
    2131:	db 7d f0             	fstpt  -0x10(%rbp)
    2134:	48 83 45 d8 01       	addq   $0x1,-0x28(%rbp)
    2139:	48 81 7d d8 3f 42 0f 	cmpq   $0xf423f,-0x28(%rbp)
    2140:	00 
    2141:	76 8d                	jbe    20d0 <_ZN3pix4math5hyper4coshEe+0x28>
    2143:	eb 01                	jmp    2146 <_ZN3pix4math5hyper4coshEe+0x9e>
    2145:	90                   	nop
    2146:	db 6d f0             	fldt   -0x10(%rbp)
    2149:	c9                   	leave  
    214a:	c3                   	ret    

000000000000214b <_ZN3pix4math5hyper4tanhEe>:
    214b:	f3 0f 1e fa          	endbr64 
    214f:	55                   	push   %rbp
    2150:	48 89 e5             	mov    %rsp,%rbp
    2153:	48 83 ec 10          	sub    $0x10,%rsp
    2157:	ff 75 18             	push   0x18(%rbp)
    215a:	ff 75 10             	push   0x10(%rbp)
    215d:	e8 a1 fe ff ff       	call   2003 <_ZN3pix4math5hyper4sinhEe>
    2162:	48 83 c4 10          	add    $0x10,%rsp
    2166:	db 7d f0             	fstpt  -0x10(%rbp)
    2169:	ff 75 18             	push   0x18(%rbp)
    216c:	ff 75 10             	push   0x10(%rbp)
    216f:	e8 34 ff ff ff       	call   20a8 <_ZN3pix4math5hyper4coshEe>
    2174:	48 83 c4 10          	add    $0x10,%rsp
    2178:	db 6d f0             	fldt   -0x10(%rbp)
    217b:	de f1                	fdivp  %st,%st(1)
    217d:	c9                   	leave  
    217e:	c3                   	ret    

000000000000217f <_ZN3pix4math5hyper4sechEe>:
    217f:	f3 0f 1e fa          	endbr64 
    2183:	55                   	push   %rbp
    2184:	48 89 e5             	mov    %rsp,%rbp
    2187:	ff 75 18             	push   0x18(%rbp)
    218a:	ff 75 10             	push   0x10(%rbp)
    218d:	e8 16 ff ff ff       	call   20a8 <_ZN3pix4math5hyper4coshEe>
    2192:	48 83 c4 10          	add    $0x10,%rsp
    2196:	d9 e8                	fld1   
    2198:	de f1                	fdivp  %st,%st(1)
    219a:	c9                   	leave  
    219b:	c3                   	ret    

000000000000219c <_ZN3pix4math5hyper4cschEe>:
    219c:	f3 0f 1e fa          	endbr64 
    21a0:	55                   	push   %rbp
    21a1:	48 89 e5             	mov    %rsp,%rbp
    21a4:	ff 75 18             	push   0x18(%rbp)
    21a7:	ff 75 10             	push   0x10(%rbp)
    21aa:	e8 d0 ff ff ff       	call   217f <_ZN3pix4math5hyper4sechEe>
    21af:	48 83 c4 10          	add    $0x10,%rsp
    21b3:	d9 e8                	fld1   
    21b5:	de f1                	fdivp  %st,%st(1)
    21b7:	c9                   	leave  
    21b8:	c3                   	ret    

00000000000021b9 <_ZN3pix4math5hyper4cothEe>:
    21b9:	f3 0f 1e fa          	endbr64 
    21bd:	55                   	push   %rbp
    21be:	48 89 e5             	mov    %rsp,%rbp
    21c1:	48 83 ec 10          	sub    $0x10,%rsp
    21c5:	ff 75 18             	push   0x18(%rbp)
    21c8:	ff 75 10             	push   0x10(%rbp)
    21cb:	e8 d8 fe ff ff       	call   20a8 <_ZN3pix4math5hyper4coshEe>
    21d0:	48 83 c4 10          	add    $0x10,%rsp
    21d4:	db 7d f0             	fstpt  -0x10(%rbp)
    21d7:	ff 75 18             	push   0x18(%rbp)
    21da:	ff 75 10             	push   0x10(%rbp)
    21dd:	e8 21 fe ff ff       	call   2003 <_ZN3pix4math5hyper4sinhEe>
    21e2:	48 83 c4 10          	add    $0x10,%rsp
    21e6:	db 6d f0             	fldt   -0x10(%rbp)
    21e9:	de f1                	fdivp  %st,%st(1)
    21eb:	c9                   	leave  
    21ec:	c3                   	ret    
    21ed:	90                   	nop

00000000000021ee <_ZN3pix8graphics3rgbaSERKS1_>:
    21ee:	f3 0f 1e fa          	endbr64 
    21f2:	55                   	push   %rbp
    21f3:	48 89 e5             	mov    %rsp,%rbp
    21f6:	48 89 7d f8          	mov    %rdi,-0x8(%rbp)
    21fa:	48 89 75 f0          	mov    %rsi,-0x10(%rbp)
    21fe:	48 8b 45 f0          	mov    -0x10(%rbp),%rax
    2202:	8b 10                	mov    (%rax),%edx
    2204:	48 8b 45 f8          	mov    -0x8(%rbp),%rax
    2208:	89 10                	mov    %edx,(%rax)
    220a:	48 8b 45 f0          	mov    -0x10(%rbp),%rax
    220e:	8b 50 04             	mov    0x4(%rax),%edx
    2211:	48 8b 45 f8          	mov    -0x8(%rbp),%rax
    2215:	89 50 04             	mov    %edx,0x4(%rax)
    2218:	48 8b 45 f0          	mov    -0x10(%rbp),%rax
    221c:	8b 50 08             	mov    0x8(%rax),%edx
    221f:	48 8b 45 f8          	mov    -0x8(%rbp),%rax
    2223:	89 50 08             	mov    %edx,0x8(%rax)
    2226:	90                   	nop
    2227:	5d                   	pop    %rbp
    2228:	c3                   	ret    
    2229:	90                   	nop

000000000000222a <_ZNK3pix8graphics3rgbeqERKS1_>:
    222a:	f3 0f 1e fa          	endbr64 
    222e:	55                   	push   %rbp
    222f:	48 89 e5             	mov    %rsp,%rbp
    2232:	48 89 7d f8          	mov    %rdi,-0x8(%rbp)
    2236:	48 89 75 f0          	mov    %rsi,-0x10(%rbp)
    223a:	48 8b 45 f8          	mov    -0x8(%rbp),%rax
    223e:	8b 10                	mov    (%rax),%edx
    2240:	48 8b 45 f0          	mov    -0x10(%rbp),%rax
    2244:	8b 00                	mov    (%rax),%eax
    2246:	39 c2                	cmp    %eax,%edx
    2248:	75 2b                	jne    2275 <_ZNK3pix8graphics3rgbeqERKS1_+0x4b>
    224a:	48 8b 45 f8          	mov    -0x8(%rbp),%rax
    224e:	8b 50 04             	mov    0x4(%rax),%edx
    2251:	48 8b 45 f0          	mov    -0x10(%rbp),%rax
    2255:	8b 40 04             	mov    0x4(%rax),%eax
    2258:	39 c2                	cmp    %eax,%edx
    225a:	75 19                	jne    2275 <_ZNK3pix8graphics3rgbeqERKS1_+0x4b>
    225c:	48 8b 45 f8          	mov    -0x8(%rbp),%rax
    2260:	8b 50 08             	mov    0x8(%rax),%edx
    2263:	48 8b 45 f0          	mov    -0x10(%rbp),%rax
    2267:	8b 40 08             	mov    0x8(%rax),%eax
    226a:	39 c2                	cmp    %eax,%edx
    226c:	75 07                	jne    2275 <_ZNK3pix8graphics3rgbeqERKS1_+0x4b>
    226e:	b8 01 00 00 00       	mov    $0x1,%eax
    2273:	eb 05                	jmp    227a <_ZNK3pix8graphics3rgbeqERKS1_+0x50>
    2275:	b8 00 00 00 00       	mov    $0x0,%eax
    227a:	5d                   	pop    %rbp
    227b:	c3                   	ret    

000000000000227c <_ZNK3pix8graphics3rgbneERKS1_>:
    227c:	f3 0f 1e fa          	endbr64 
    2280:	55                   	push   %rbp
    2281:	48 89 e5             	mov    %rsp,%rbp
    2284:	48 89 7d f8          	mov    %rdi,-0x8(%rbp)
    2288:	48 89 75 f0          	mov    %rsi,-0x10(%rbp)
    228c:	48 8b 45 f8          	mov    -0x8(%rbp),%rax
    2290:	8b 10                	mov    (%rax),%edx
    2292:	48 8b 45 f0          	mov    -0x10(%rbp),%rax
    2296:	8b 00                	mov    (%rax),%eax
    2298:	39 c2                	cmp    %eax,%edx
    229a:	75 24                	jne    22c0 <_ZNK3pix8graphics3rgbneERKS1_+0x44>
    229c:	48 8b 45 f8          	mov    -0x8(%rbp),%rax
    22a0:	8b 50 04             	mov    0x4(%rax),%edx
    22a3:	48 8b 45 f0          	mov    -0x10(%rbp),%rax
    22a7:	8b 40 04             	mov    0x4(%rax),%eax
    22aa:	39 c2                	cmp    %eax,%edx
    22ac:	75 12                	jne    22c0 <_ZNK3pix8graphics3rgbneERKS1_+0x44>
    22ae:	48 8b 45 f8          	mov    -0x8(%rbp),%rax
    22b2:	8b 50 08             	mov    0x8(%rax),%edx
    22b5:	48 8b 45 f0          	mov    -0x10(%rbp),%rax
    22b9:	8b 40 08             	mov    0x8(%rax),%eax
    22bc:	39 c2                	cmp    %eax,%edx
    22be:	74 07                	je     22c7 <_ZNK3pix8graphics3rgbneERKS1_+0x4b>
    22c0:	b8 01 00 00 00       	mov    $0x1,%eax
    22c5:	eb 05                	jmp    22cc <_ZNK3pix8graphics3rgbneERKS1_+0x50>
    22c7:	b8 00 00 00 00       	mov    $0x0,%eax
    22cc:	5d                   	pop    %rbp
    22cd:	c3                   	ret    

00000000000022ce <main>:
    22ce:	f3 0f 1e fa          	endbr64 
    22d2:	55                   	push   %rbp
    22d3:	48 89 e5             	mov    %rsp,%rbp
    22d6:	53                   	push   %rbx
    22d7:	48 83 ec 58          	sub    $0x58,%rsp
    22db:	89 7d ac             	mov    %edi,-0x54(%rbp)
    22de:	48 89 75 a0          	mov    %rsi,-0x60(%rbp)
    22e2:	db 2d a8 0f 00 00    	fldt   0xfa8(%rip)        # 3290 <_ZN3pix8graphicsL7max_valE+0xec>
    22e8:	db 7d d0             	fstpt  -0x30(%rbp)
    22eb:	48 8d 05 b6 0e 00 00 	lea    0xeb6(%rip),%rax        # 31a8 <_ZN3pix8graphicsL7max_valE+0x4>
    22f2:	48 89 c6             	mov    %rax,%rsi
    22f5:	48 8d 05 44 2d 00 00 	lea    0x2d44(%rip),%rax        # 5040 <_ZSt4cout@GLIBCXX_3.4>
    22fc:	48 89 c7             	mov    %rax,%rdi
    22ff:	e8 4c ee ff ff       	call   1150 <_ZStlsISt11char_traitsIcEERSt13basic_ostreamIcT_ES5_PKc@plt>
    2304:	be 0a 00 00 00       	mov    $0xa,%esi
    2309:	48 89 c7             	mov    %rax,%rdi
    230c:	e8 6f ee ff ff       	call   1180 <_ZStlsISt11char_traitsIcEERSt13basic_ostreamIcT_ES5_c@plt>
    2311:	48 c7 45 b8 00 00 00 	movq   $0x0,-0x48(%rbp)
    2318:	00 
    2319:	eb 4a                	jmp    2365 <main+0x97>
    231b:	be 09 00 00 00       	mov    $0x9,%esi
    2320:	48 8d 05 19 2d 00 00 	lea    0x2d19(%rip),%rax        # 5040 <_ZSt4cout@GLIBCXX_3.4>
    2327:	48 89 c7             	mov    %rax,%rdi
    232a:	e8 51 ee ff ff       	call   1180 <_ZStlsISt11char_traitsIcEERSt13basic_ostreamIcT_ES5_c@plt>
    232f:	48 89 c2             	mov    %rax,%rdx
    2332:	48 8b 45 b8          	mov    -0x48(%rbp),%rax
    2336:	48 8d 0c c5 00 00 00 	lea    0x0(,%rax,8),%rcx
    233d:	00 
    233e:	48 8b 45 a0          	mov    -0x60(%rbp),%rax
    2342:	48 01 c8             	add    %rcx,%rax
    2345:	48 8b 00             	mov    (%rax),%rax
    2348:	48 89 c6             	mov    %rax,%rsi
    234b:	48 89 d7             	mov    %rdx,%rdi
    234e:	e8 fd ed ff ff       	call   1150 <_ZStlsISt11char_traitsIcEERSt13basic_ostreamIcT_ES5_PKc@plt>
    2353:	be 0a 00 00 00       	mov    $0xa,%esi
    2358:	48 89 c7             	mov    %rax,%rdi
    235b:	e8 20 ee ff ff       	call   1180 <_ZStlsISt11char_traitsIcEERSt13basic_ostreamIcT_ES5_c@plt>
    2360:	48 83 45 b8 01       	addq   $0x1,-0x48(%rbp)
    2365:	8b 45 ac             	mov    -0x54(%rbp),%eax
    2368:	48 98                	cltq   
    236a:	48 39 45 b8          	cmp    %rax,-0x48(%rbp)
    236e:	72 ab                	jb     231b <main+0x4d>
    2370:	be 0a 00 00 00       	mov    $0xa,%esi
    2375:	48 8d 05 c4 2c 00 00 	lea    0x2cc4(%rip),%rax        # 5040 <_ZSt4cout@GLIBCXX_3.4>
    237c:	48 89 c7             	mov    %rax,%rdi
    237f:	e8 fc ed ff ff       	call   1180 <_ZStlsISt11char_traitsIcEERSt13basic_ostreamIcT_ES5_c@plt>
    2384:	48 c7 45 c0 00 00 00 	movq   $0x0,-0x40(%rbp)
    238b:	00 
    238c:	e9 15 01 00 00       	jmp    24a6 <main+0x1d8>
    2391:	db 6d d0             	fldt   -0x30(%rbp)
    2394:	db 2d 06 0f 00 00    	fldt   0xf06(%rip)        # 32a0 <_ZN3pix8graphicsL7max_valE+0xfc>
    239a:	de c9                	fmulp  %st,%st(1)
    239c:	db 6d d0             	fldt   -0x30(%rbp)
    239f:	db 2d 0b 0f 00 00    	fldt   0xf0b(%rip)        # 32b0 <_ZN3pix8graphicsL7max_valE+0x10c>
    23a5:	de c9                	fmulp  %st,%st(1)
    23a7:	d9 c9                	fxch   %st(1)
    23a9:	48 8d 64 24 f0       	lea    -0x10(%rsp),%rsp
    23ae:	db 3c 24             	fstpt  (%rsp)
    23b1:	48 8d 64 24 f0       	lea    -0x10(%rsp),%rsp
    23b6:	db 3c 24             	fstpt  (%rsp)
    23b9:	e8 03 f0 ff ff       	call   13c1 <_ZN3pix6random5drandEee>
    23be:	48 83 c4 20          	add    $0x20,%rsp
    23c2:	db 7d e0             	fstpt  -0x20(%rbp)
    23c5:	48 8d 05 e7 0d 00 00 	lea    0xde7(%rip),%rax        # 31b3 <_ZN3pix8graphicsL7max_valE+0xf>
    23cc:	48 89 c6             	mov    %rax,%rsi
    23cf:	48 8d 05 6a 2c 00 00 	lea    0x2c6a(%rip),%rax        # 5040 <_ZSt4cout@GLIBCXX_3.4>
    23d6:	48 89 c7             	mov    %rax,%rdi
    23d9:	e8 72 ed ff ff       	call   1150 <_ZStlsISt11char_traitsIcEERSt13basic_ostreamIcT_ES5_PKc@plt>
    23de:	ff 75 e8             	push   -0x18(%rbp)
    23e1:	ff 75 e0             	push   -0x20(%rbp)
    23e4:	48 89 c7             	mov    %rax,%rdi
    23e7:	e8 84 ed ff ff       	call   1170 <_ZNSolsEe@plt>
    23ec:	48 83 c4 10          	add    $0x10,%rsp
    23f0:	be 0a 00 00 00       	mov    $0xa,%esi
    23f5:	48 89 c7             	mov    %rax,%rdi
    23f8:	e8 83 ed ff ff       	call   1180 <_ZStlsISt11char_traitsIcEERSt13basic_ostreamIcT_ES5_c@plt>
    23fd:	48 89 c2             	mov    %rax,%rdx
    2400:	48 8d 05 b3 0d 00 00 	lea    0xdb3(%rip),%rax        # 31ba <_ZN3pix8graphicsL7max_valE+0x16>
    2407:	48 89 c6             	mov    %rax,%rsi
    240a:	48 89 d7             	mov    %rdx,%rdi
    240d:	e8 3e ed ff ff       	call   1150 <_ZStlsISt11char_traitsIcEERSt13basic_ostreamIcT_ES5_PKc@plt>
    2412:	48 89 c3             	mov    %rax,%rbx
    2415:	ff 75 e8             	push   -0x18(%rbp)
    2418:	ff 75 e0             	push   -0x20(%rbp)
    241b:	e8 2b fd ff ff       	call   214b <_ZN3pix4math5hyper4tanhEe>
    2420:	48 83 c4 10          	add    $0x10,%rsp
    2424:	48 8d 64 24 f0       	lea    -0x10(%rsp),%rsp
    2429:	db 3c 24             	fstpt  (%rsp)
    242c:	48 89 df             	mov    %rbx,%rdi
    242f:	e8 3c ed ff ff       	call   1170 <_ZNSolsEe@plt>
    2434:	48 83 c4 10          	add    $0x10,%rsp
    2438:	be 0a 00 00 00       	mov    $0xa,%esi
    243d:	48 89 c7             	mov    %rax,%rdi
    2440:	e8 3b ed ff ff       	call   1180 <_ZStlsISt11char_traitsIcEERSt13basic_ostreamIcT_ES5_c@plt>
    2445:	48 89 c2             	mov    %rax,%rdx
    2448:	48 8d 05 73 0d 00 00 	lea    0xd73(%rip),%rax        # 31c2 <_ZN3pix8graphicsL7max_valE+0x1e>
    244f:	48 89 c6             	mov    %rax,%rsi
    2452:	48 89 d7             	mov    %rdx,%rdi
    2455:	e8 f6 ec ff ff       	call   1150 <_ZStlsISt11char_traitsIcEERSt13basic_ostreamIcT_ES5_PKc@plt>
    245a:	48 89 c3             	mov    %rax,%rbx
    245d:	ff 75 e8             	push   -0x18(%rbp)
    2460:	ff 75 e0             	push   -0x20(%rbp)
    2463:	e8 e6 01 00 00       	call   264e <_ZSt4tanhe>
    2468:	48 83 c4 10          	add    $0x10,%rsp
    246c:	48 8d 64 24 f0       	lea    -0x10(%rsp),%rsp
    2471:	db 3c 24             	fstpt  (%rsp)
    2474:	48 89 df             	mov    %rbx,%rdi
    2477:	e8 f4 ec ff ff       	call   1170 <_ZNSolsEe@plt>
    247c:	48 83 c4 10          	add    $0x10,%rsp
    2480:	be 0a 00 00 00       	mov    $0xa,%esi
    2485:	48 89 c7             	mov    %rax,%rdi
    2488:	e8 f3 ec ff ff       	call   1180 <_ZStlsISt11char_traitsIcEERSt13basic_ostreamIcT_ES5_c@plt>
    248d:	be 0a 00 00 00       	mov    $0xa,%esi
    2492:	48 8d 05 a7 2b 00 00 	lea    0x2ba7(%rip),%rax        # 5040 <_ZSt4cout@GLIBCXX_3.4>
    2499:	48 89 c7             	mov    %rax,%rdi
    249c:	e8 df ec ff ff       	call   1180 <_ZStlsISt11char_traitsIcEERSt13basic_ostreamIcT_ES5_c@plt>
    24a1:	48 83 45 c0 01       	addq   $0x1,-0x40(%rbp)
    24a6:	48 8b 45 c0          	mov    -0x40(%rbp),%rax
    24aa:	48 85 c0             	test   %rax,%rax
    24ad:	78 0b                	js     24ba <main+0x1ec>
    24af:	66 0f ef c0          	pxor   %xmm0,%xmm0
    24b3:	f2 48 0f 2a c0       	cvtsi2sd %rax,%xmm0
    24b8:	eb 19                	jmp    24d3 <main+0x205>
    24ba:	48 89 c2             	mov    %rax,%rdx
    24bd:	48 d1 ea             	shr    %rdx
    24c0:	83 e0 01             	and    $0x1,%eax
    24c3:	48 09 c2             	or     %rax,%rdx
    24c6:	66 0f ef c0          	pxor   %xmm0,%xmm0
    24ca:	f2 48 0f 2a c2       	cvtsi2sd %rdx,%xmm0
    24cf:	f2 0f 58 c0          	addsd  %xmm0,%xmm0
    24d3:	f2 0f 10 0d e5 0d 00 	movsd  0xde5(%rip),%xmm1        # 32c0 <_ZN3pix8graphicsL7max_valE+0x11c>
    24da:	00 
    24db:	66 0f 2f c8          	comisd %xmm0,%xmm1
    24df:	0f 87 ac fe ff ff    	ja     2391 <main+0xc3>
    24e5:	b8 00 00 00 00       	mov    $0x0,%eax
    24ea:	eb 5f                	jmp    254b <main+0x27d>
    24ec:	f3 0f 1e fa          	endbr64 
    24f0:	48 83 fa 01          	cmp    $0x1,%rdx
    24f4:	74 08                	je     24fe <main+0x230>
    24f6:	48 89 c7             	mov    %rax,%rdi
    24f9:	e8 d2 ec ff ff       	call   11d0 <_Unwind_Resume@plt>
    24fe:	48 89 c7             	mov    %rax,%rdi
    2501:	e8 0a ec ff ff       	call   1110 <__cxa_begin_catch@plt>
    2506:	48 89 45 c8          	mov    %rax,-0x38(%rbp)
    250a:	48 8b 45 c8          	mov    -0x38(%rbp),%rax
    250e:	48 89 c6             	mov    %rax,%rsi
    2511:	48 8d 05 28 2b 00 00 	lea    0x2b28(%rip),%rax        # 5040 <_ZSt4cout@GLIBCXX_3.4>
    2518:	48 89 c7             	mov    %rax,%rdi
    251b:	e8 30 ec ff ff       	call   1150 <_ZStlsISt11char_traitsIcEERSt13basic_ostreamIcT_ES5_PKc@plt>
    2520:	be 0a 00 00 00       	mov    $0xa,%esi
    2525:	48 89 c7             	mov    %rax,%rdi
    2528:	e8 53 ec ff ff       	call   1180 <_ZStlsISt11char_traitsIcEERSt13basic_ostreamIcT_ES5_c@plt>
    252d:	e8 7e ec ff ff       	call   11b0 <__cxa_end_catch@plt>
    2532:	eb b1                	jmp    24e5 <main+0x217>
    2534:	f3 0f 1e fa          	endbr64 
    2538:	48 89 c3             	mov    %rax,%rbx
    253b:	e8 70 ec ff ff       	call   11b0 <__cxa_end_catch@plt>
    2540:	48 89 d8             	mov    %rbx,%rax
    2543:	48 89 c7             	mov    %rax,%rdi
    2546:	e8 85 ec ff ff       	call   11d0 <_Unwind_Resume@plt>
    254b:	48 8b 5d f8          	mov    -0x8(%rbp),%rbx
    254f:	c9                   	leave  
    2550:	c3                   	ret    

0000000000002551 <_Z5pausePKc>:
    2551:	f3 0f 1e fa          	endbr64 
    2555:	55                   	push   %rbp
    2556:	48 89 e5             	mov    %rsp,%rbp
    2559:	48 83 ec 10          	sub    $0x10,%rsp
    255d:	48 89 7d f8          	mov    %rdi,-0x8(%rbp)
    2561:	48 83 7d f8 00       	cmpq   $0x0,-0x8(%rbp)
    2566:	75 1b                	jne    2583 <_Z5pausePKc+0x32>
    2568:	48 8d 05 5b 0c 00 00 	lea    0xc5b(%rip),%rax        # 31ca <_ZN3pix8graphicsL7max_valE+0x26>
    256f:	48 89 c6             	mov    %rax,%rsi
    2572:	48 8d 05 c7 2a 00 00 	lea    0x2ac7(%rip),%rax        # 5040 <_ZSt4cout@GLIBCXX_3.4>
    2579:	48 89 c7             	mov    %rax,%rdi
    257c:	e8 cf eb ff ff       	call   1150 <_ZStlsISt11char_traitsIcEERSt13basic_ostreamIcT_ES5_PKc@plt>
    2581:	eb 2b                	jmp    25ae <_Z5pausePKc+0x5d>
    2583:	48 8b 45 f8          	mov    -0x8(%rbp),%rax
    2587:	48 89 c6             	mov    %rax,%rsi
    258a:	48 8d 05 af 2a 00 00 	lea    0x2aaf(%rip),%rax        # 5040 <_ZSt4cout@GLIBCXX_3.4>
    2591:	48 89 c7             	mov    %rax,%rdi
    2594:	e8 b7 eb ff ff       	call   1150 <_ZStlsISt11char_traitsIcEERSt13basic_ostreamIcT_ES5_PKc@plt>
    2599:	48 89 c2             	mov    %rax,%rdx
    259c:	48 8d 05 43 0c 00 00 	lea    0xc43(%rip),%rax        # 31e6 <_ZN3pix8graphicsL7max_valE+0x42>
    25a3:	48 89 c6             	mov    %rax,%rsi
    25a6:	48 89 d7             	mov    %rdx,%rdi
    25a9:	e8 a2 eb ff ff       	call   1150 <_ZStlsISt11char_traitsIcEERSt13basic_ostreamIcT_ES5_PKc@plt>
    25ae:	48 8d 05 ab 2b 00 00 	lea    0x2bab(%rip),%rax        # 5160 <_ZSt3cin@GLIBCXX_3.4>
    25b5:	48 89 c7             	mov    %rax,%rdi
    25b8:	e8 d3 eb ff ff       	call   1190 <_ZNSi3getEv@plt>
    25bd:	90                   	nop
    25be:	c9                   	leave  
    25bf:	c3                   	ret    

00000000000025c0 <_Z41__static_initialization_and_destruction_0ii>:
    25c0:	f3 0f 1e fa          	endbr64 
    25c4:	55                   	push   %rbp
    25c5:	48 89 e5             	mov    %rsp,%rbp
    25c8:	48 83 ec 10          	sub    $0x10,%rsp
    25cc:	89 7d fc             	mov    %edi,-0x4(%rbp)
    25cf:	89 75 f8             	mov    %esi,-0x8(%rbp)
    25d2:	83 7d fc 01          	cmpl   $0x1,-0x4(%rbp)
    25d6:	75 3b                	jne    2613 <_Z41__static_initialization_and_destruction_0ii+0x53>
    25d8:	81 7d f8 ff ff 00 00 	cmpl   $0xffff,-0x8(%rbp)
    25df:	75 32                	jne    2613 <_Z41__static_initialization_and_destruction_0ii+0x53>
    25e1:	48 8d 05 91 2c 00 00 	lea    0x2c91(%rip),%rax        # 5279 <_ZStL8__ioinit>
    25e8:	48 89 c7             	mov    %rax,%rdi
    25eb:	e8 b0 eb ff ff       	call   11a0 <_ZNSt8ios_base4InitC1Ev@plt>
    25f0:	48 8d 05 11 2a 00 00 	lea    0x2a11(%rip),%rax        # 5008 <__dso_handle>
    25f7:	48 89 c2             	mov    %rax,%rdx
    25fa:	48 8d 05 78 2c 00 00 	lea    0x2c78(%rip),%rax        # 5279 <_ZStL8__ioinit>
    2601:	48 89 c6             	mov    %rax,%rsi
    2604:	48 8b 05 ed 29 00 00 	mov    0x29ed(%rip),%rax        # 4ff8 <_ZNSt8ios_base4InitD1Ev@GLIBCXX_3.4>
    260b:	48 89 c7             	mov    %rax,%rdi
    260e:	e8 2d eb ff ff       	call   1140 <__cxa_atexit@plt>
    2613:	90                   	nop
    2614:	c9                   	leave  
    2615:	c3                   	ret    

0000000000002616 <_GLOBAL__sub_I__ZN3pix6random4randEv>:
    2616:	f3 0f 1e fa          	endbr64 
    261a:	55                   	push   %rbp
    261b:	48 89 e5             	mov    %rsp,%rbp
    261e:	be ff ff 00 00       	mov    $0xffff,%esi
    2623:	bf 01 00 00 00       	mov    $0x1,%edi
    2628:	e8 93 ff ff ff       	call   25c0 <_Z41__static_initialization_and_destruction_0ii>
    262d:	5d                   	pop    %rbp
    262e:	c3                   	ret    

000000000000262f <_ZN3pix4math3NaNEv>:
    262f:	f3 0f 1e fa          	endbr64 
    2633:	55                   	push   %rbp
    2634:	48 89 e5             	mov    %rsp,%rbp
    2637:	48 8d 05 d2 0a 00 00 	lea    0xad2(%rip),%rax        # 3110 <_ZL7STD_NaN>
    263e:	f2 0f 10 00          	movsd  (%rax),%xmm0
    2642:	66 48 0f 7e c0       	movq   %xmm0,%rax
    2647:	66 48 0f 6e c0       	movq   %rax,%xmm0
    264c:	5d                   	pop    %rbp
    264d:	c3                   	ret    

000000000000264e <_ZSt4tanhe>:
    264e:	f3 0f 1e fa          	endbr64 
    2652:	55                   	push   %rbp
    2653:	48 89 e5             	mov    %rsp,%rbp
    2656:	ff 75 18             	push   0x18(%rbp)
    2659:	ff 75 10             	push   0x10(%rbp)
    265c:	e8 cf ea ff ff       	call   1130 <tanhl@plt>
    2661:	48 83 c4 10          	add    $0x10,%rsp
    2665:	c9                   	leave  
    2666:	c3                   	ret    

0000000000002667 <_ZN3pix4math3absIeEET_S2_>:
    2667:	f3 0f 1e fa          	endbr64 
    266b:	55                   	push   %rbp
    266c:	48 89 e5             	mov    %rsp,%rbp
    266f:	db 6d 10             	fldt   0x10(%rbp)
    2672:	d9 ee                	fldz   
    2674:	df f1                	fcomip %st(1),%st
    2676:	dd d8                	fstp   %st(0)
    2678:	76 07                	jbe    2681 <_ZN3pix4math3absIeEET_S2_+0x1a>
    267a:	db 6d 10             	fldt   0x10(%rbp)
    267d:	d9 e0                	fchs   
    267f:	eb 03                	jmp    2684 <_ZN3pix4math3absIeEET_S2_+0x1d>
    2681:	db 6d 10             	fldt   0x10(%rbp)
    2684:	5d                   	pop    %rbp
    2685:	c3                   	ret    

0000000000002686 <_ZN3pix4math5floorIeEET_S2_>:
    2686:	f3 0f 1e fa          	endbr64 
    268a:	55                   	push   %rbp
    268b:	48 89 e5             	mov    %rsp,%rbp
    268e:	db 6d 10             	fldt   0x10(%rbp)
    2691:	d9 7d fe             	fnstcw -0x2(%rbp)
    2694:	0f b7 45 fe          	movzwl -0x2(%rbp),%eax
    2698:	80 cc 0c             	or     $0xc,%ah
    269b:	66 89 45 fc          	mov    %ax,-0x4(%rbp)
    269f:	d9 6d fc             	fldcw  -0x4(%rbp)
    26a2:	db 5d f8             	fistpl -0x8(%rbp)
    26a5:	d9 6d fe             	fldcw  -0x2(%rbp)
    26a8:	db 45 f8             	fildl  -0x8(%rbp)
    26ab:	5d                   	pop    %rbp
    26ac:	c3                   	ret    

00000000000026ad <_ZN3pix4math5f_modIeEET_S2_S2_>:
    26ad:	f3 0f 1e fa          	endbr64 
    26b1:	55                   	push   %rbp
    26b2:	48 89 e5             	mov    %rsp,%rbp
    26b5:	db 6d 10             	fldt   0x10(%rbp)
    26b8:	d9 ee                	fldz   
    26ba:	df f1                	fcomip %st(1),%st
    26bc:	dd d8                	fstp   %st(0)
    26be:	76 2b                	jbe    26eb <_ZN3pix4math5f_modIeEET_S2_S2_+0x3e>
    26c0:	bf 08 00 00 00       	mov    $0x8,%edi
    26c5:	e8 56 ea ff ff       	call   1120 <__cxa_allocate_exception@plt>
    26ca:	48 8d 15 83 0a 00 00 	lea    0xa83(%rip),%rdx        # 3154 <_ZL7STD_NaN+0x44>
    26d1:	48 89 10             	mov    %rdx,(%rax)
    26d4:	ba 00 00 00 00       	mov    $0x0,%edx
    26d9:	48 8d 0d 30 26 00 00 	lea    0x2630(%rip),%rcx        # 4d10 <_ZTIPKc@CXXABI_1.3>
    26e0:	48 89 ce             	mov    %rcx,%rsi
    26e3:	48 89 c7             	mov    %rax,%rdi
    26e6:	e8 d5 ea ff ff       	call   11c0 <__cxa_throw@plt>
    26eb:	db 6d 20             	fldt   0x20(%rbp)
    26ee:	d9 ee                	fldz   
    26f0:	df f1                	fcomip %st(1),%st
    26f2:	dd d8                	fstp   %st(0)
    26f4:	72 2b                	jb     2721 <_ZN3pix4math5f_modIeEET_S2_S2_+0x74>
    26f6:	bf 08 00 00 00       	mov    $0x8,%edi
    26fb:	e8 20 ea ff ff       	call   1120 <__cxa_allocate_exception@plt>
    2700:	48 8d 15 e9 0a 00 00 	lea    0xae9(%rip),%rdx        # 31f0 <_ZN3pix8graphicsL7max_valE+0x4c>
    2707:	48 89 10             	mov    %rdx,(%rax)
    270a:	ba 00 00 00 00       	mov    $0x0,%edx
    270f:	48 8d 0d fa 25 00 00 	lea    0x25fa(%rip),%rcx        # 4d10 <_ZTIPKc@CXXABI_1.3>
    2716:	48 89 ce             	mov    %rcx,%rsi
    2719:	48 89 c7             	mov    %rax,%rdi
    271c:	e8 9f ea ff ff       	call   11c0 <__cxa_throw@plt>
    2721:	db 6d 10             	fldt   0x10(%rbp)
    2724:	db 6d 20             	fldt   0x20(%rbp)
    2727:	df f1                	fcomip %st(1),%st
    2729:	dd d8                	fstp   %st(0)
    272b:	76 05                	jbe    2732 <_ZN3pix4math5f_modIeEET_S2_S2_+0x85>
    272d:	db 6d 10             	fldt   0x10(%rbp)
    2730:	eb 38                	jmp    276a <_ZN3pix4math5f_modIeEET_S2_S2_+0xbd>
    2732:	db 6d 10             	fldt   0x10(%rbp)
    2735:	db 6d 20             	fldt   0x20(%rbp)
    2738:	df e9                	fucomip %st(1),%st
    273a:	dd d8                	fstp   %st(0)
    273c:	7a 1d                	jp     275b <_ZN3pix4math5f_modIeEET_S2_S2_+0xae>
    273e:	db 6d 10             	fldt   0x10(%rbp)
    2741:	db 6d 20             	fldt   0x20(%rbp)
    2744:	df e9                	fucomip %st(1),%st
    2746:	dd d8                	fstp   %st(0)
    2748:	75 04                	jne    274e <_ZN3pix4math5f_modIeEET_S2_S2_+0xa1>
    274a:	d9 ee                	fldz   
    274c:	eb 1c                	jmp    276a <_ZN3pix4math5f_modIeEET_S2_S2_+0xbd>
    274e:	eb 0b                	jmp    275b <_ZN3pix4math5f_modIeEET_S2_S2_+0xae>
    2750:	db 6d 10             	fldt   0x10(%rbp)
    2753:	db 6d 20             	fldt   0x20(%rbp)
    2756:	de e9                	fsubrp %st,%st(1)
    2758:	db 7d 10             	fstpt  0x10(%rbp)
    275b:	db 6d 20             	fldt   0x20(%rbp)
    275e:	db 6d 10             	fldt   0x10(%rbp)
    2761:	df f1                	fcomip %st(1),%st
    2763:	dd d8                	fstp   %st(0)
    2765:	73 e9                	jae    2750 <_ZN3pix4math5f_modIeEET_S2_S2_+0xa3>
    2767:	db 6d 10             	fldt   0x10(%rbp)
    276a:	5d                   	pop    %rbp
    276b:	c3                   	ret    

Disassembly of section .fini:

000000000000276c <_fini>:
    276c:	f3 0f 1e fa          	endbr64 
    2770:	48 83 ec 08          	sub    $0x8,%rsp
    2774:	48 83 c4 08          	add    $0x8,%rsp
    2778:	c3                   	ret    
